---
triple:          'arm64-apple-darwin'
binary-path:     '/Users/thomaskidane/Documents/Codeforce-Problems/Codeforce_Problems/output/1971F'
relocations:
  - { offsetInCU: 0x1EADA, offset: 0x1EADA, size: 0x8, addend: 0x0, symName: __ZStL8__ioinit, symObjAddr: 0x91220, symBinAddr: 0x1000105C8, symSize: 0x0 }
  - { offsetInCU: 0x1F516, offset: 0x1F516, size: 0x8, addend: 0x0, symName: __GLOBAL__sub_I_1971F.cpp, symObjAddr: 0x3548, symBinAddr: 0x100008C90, symSize: 0x14 }
  - { offsetInCU: 0x1F53F, offset: 0x1F53F, size: 0x8, addend: 0x0, symName: __Z41__static_initialization_and_destruction_0v, symObjAddr: 0x350C, symBinAddr: 0x100008C54, symSize: 0x3C }
  - { offsetInCU: 0x1F530, offset: 0x1F530, size: 0x8, addend: 0x0, symName: __ZNSt10_Head_baseILm0ERKiLb0EE7_M_headERS2_, symObjAddr: 0x3428, symBinAddr: 0x100008C3C, symSize: 0x18 }
  - { offsetInCU: 0x1F559, offset: 0x1F559, size: 0x8, addend: 0x0, symName: __ZNSt10_Head_baseILm0EOiLb0EE7_M_headERS1_, symObjAddr: 0x3410, symBinAddr: 0x100008C24, symSize: 0x18 }
  - { offsetInCU: 0x1F582, offset: 0x1F582, size: 0x8, addend: 0x0, symName: __ZNSt11_Tuple_implILm0EJRKiEE7_M_headERS2_, symObjAddr: 0x33F4, symBinAddr: 0x100008C08, symSize: 0x1C }
  - { offsetInCU: 0x1F5C2, offset: 0x1F5C2, size: 0x8, addend: 0x0, symName: __ZNSt11_Tuple_implILm0EJOiEE7_M_headERS1_, symObjAddr: 0x33D8, symBinAddr: 0x100008BEC, symSize: 0x1C }
  - { offsetInCU: 0x1F5EC, offset: 0x1F5EC, size: 0x8, addend: 0x0, symName: __ZSt12__get_helperILm0ERKiJEERT0_RSt11_Tuple_implIXT_EJS2_DpT1_EE, symObjAddr: 0x33BC, symBinAddr: 0x100008BD0, symSize: 0x1C }
  - { offsetInCU: 0x1F644, offset: 0x1F644, size: 0x8, addend: 0x0, symName: __ZSt12__get_helperILm0EOiJEERT0_RSt11_Tuple_implIXT_EJS1_DpT1_EE, symObjAddr: 0x33A0, symBinAddr: 0x100008BB4, symSize: 0x1C }
  - { offsetInCU: 0x1F68C, offset: 0x1F68C, size: 0x8, addend: 0x0, symName: __ZSt7forwardIRKiEOT_RNSt16remove_referenceIS2_E4typeE, symObjAddr: 0x338C, symBinAddr: 0x100008BA0, symSize: 0x14 }
  - { offsetInCU: 0x1F6BE, offset: 0x1F6BE, size: 0x8, addend: 0x0, symName: __ZSt3getILm0EJRKiEERNSt13tuple_elementIXT_ESt5tupleIJDpT0_EEE4typeERS6_, symObjAddr: 0x3370, symBinAddr: 0x100008B84, symSize: 0x1C }
  - { offsetInCU: 0x1F775, offset: 0x1F775, size: 0x8, addend: 0x0, symName: __ZNSt8_Rb_treeIiSt4pairIKibESt10_Select1stIS2_ESt4lessIiESaIS2_EE13_Rb_tree_implIS6_Lb1EEC1Ev, symObjAddr: 0x332C, symBinAddr: 0x100008B40, symSize: 0x44 }
  - { offsetInCU: 0x1F78A, offset: 0x1F78A, size: 0x8, addend: 0x0, symName: __ZSt7forwardIOiEOT_RNSt16remove_referenceIS1_E4typeE, symObjAddr: 0x3318, symBinAddr: 0x100008B2C, symSize: 0x14 }
  - { offsetInCU: 0x1F7BC, offset: 0x1F7BC, size: 0x8, addend: 0x0, symName: __ZSt3getILm0EJOiEERNSt13tuple_elementIXT_ESt5tupleIJDpT0_EEE4typeERS5_, symObjAddr: 0x32FC, symBinAddr: 0x100008B10, symSize: 0x1C }
  - { offsetInCU: 0x1F8D0, offset: 0x1F8D0, size: 0x8, addend: 0x0, symName: __ZNSt4pairIKibEC1IJRS0_EJLm0EEJEJEEERSt5tupleIJDpT_EERS4_IJDpT1_EESt12_Index_tupleIJXspT0_EEESD_IJXspT2_EEE, symObjAddr: 0x32B4, symBinAddr: 0x100008AC8, symSize: 0x48 }
  - { offsetInCU: 0x1F937, offset: 0x1F937, size: 0x8, addend: 0x0, symName: __ZNSt15__new_allocatorISt13_Rb_tree_nodeISt4pairIKibEEED2Ev, symObjAddr: 0x32A0, symBinAddr: 0x100008AB4, symSize: 0x14 }
  - { offsetInCU: 0x1F9F4, offset: 0x1F9F4, size: 0x8, addend: 0x0, symName: __ZNSt4pairIKibEC1IJOiEJLm0EEJEJEEERSt5tupleIJDpT_EERS4_IJDpT1_EESt12_Index_tupleIJXspT0_EEESD_IJXspT2_EEE, symObjAddr: 0x3258, symBinAddr: 0x100008A6C, symSize: 0x48 }
  - { offsetInCU: 0x1FAEF, offset: 0x1FAEF, size: 0x8, addend: 0x0, symName: __ZNSt4pairIKiSt3mapIibSt4lessIiESaIS_IS0_bEEEEC1IJOiEJLm0EEJEJEEERSt5tupleIJDpT_EERSA_IJDpT1_EESt12_Index_tupleIJXspT0_EEESJ_IJXspT2_EEE, symObjAddr: 0x31F8, symBinAddr: 0x100008A0C, symSize: 0x60 }
  - { offsetInCU: 0x1FB1F, offset: 0x1FB1F, size: 0x8, addend: 0x0, symName: __ZNSt3mapIibSt4lessIiESaISt4pairIKibEEEC1Ev, symObjAddr: 0x31D8, symBinAddr: 0x1000089EC, symSize: 0x20 }
  - { offsetInCU: 0x1FB79, offset: 0x1FB79, size: 0x8, addend: 0x0, symName: __ZNSt8_Rb_treeIiSt4pairIKibESt10_Select1stIS2_ESt4lessIiESaIS2_EEC1Ev, symObjAddr: 0x31B8, symBinAddr: 0x1000089CC, symSize: 0x20 }
  - { offsetInCU: 0x1FBF6, offset: 0x1FBF6, size: 0x8, addend: 0x0, symName: __ZNSt4pairIKibEC1IJRS0_EJEEESt21piecewise_construct_tSt5tupleIJDpT_EES5_IJDpT0_EE, symObjAddr: 0x317C, symBinAddr: 0x100008990, symSize: 0x3C }
  - { offsetInCU: 0x1FC43, offset: 0x1FC43, size: 0x8, addend: 0x0, symName: __ZNSt11_Tuple_implILm0EJRKiEEC2EOS2_, symObjAddr: 0x3154, symBinAddr: 0x100008968, symSize: 0x28 }
  - { offsetInCU: 0x1FC51, offset: 0x1FC51, size: 0x8, addend: 0x0, symName: __ZNSt8_Rb_treeIiSt4pairIKibESt10_Select1stIS2_ESt4lessIiESaIS2_EE8_M_eraseEPSt13_Rb_tree_nodeIS2_E, symObjAddr: 0x30F0, symBinAddr: 0x100008904, symSize: 0x64 }
  - { offsetInCU: 0x1FD67, offset: 0x1FD67, size: 0x8, addend: 0x0, symName: __ZNSt4pairIKibEC1IJOiEJEEESt21piecewise_construct_tSt5tupleIJDpT_EES5_IJDpT0_EE, symObjAddr: 0x30B4, symBinAddr: 0x1000088C8, symSize: 0x3C }
  - { offsetInCU: 0x1FE23, offset: 0x1FE23, size: 0x8, addend: 0x0, symName: __ZNSt4pairIKiSt3mapIibSt4lessIiESaIS_IS0_bEEEEC1IJOiEJEEESt21piecewise_construct_tSt5tupleIJDpT_EESB_IJDpT0_EE, symObjAddr: 0x3078, symBinAddr: 0x10000888C, symSize: 0x3C }
  - { offsetInCU: 0x1FE52, offset: 0x1FE52, size: 0x8, addend: 0x0, symName: __ZNSt11_Tuple_implILm0EJOiEEC2EOS1_, symObjAddr: 0x3050, symBinAddr: 0x100008864, symSize: 0x28 }
  - { offsetInCU: 0x1FEF9, offset: 0x1FEF9, size: 0x8, addend: 0x0, symName: __ZNSt5tupleIJRKiEEC1EOS2_, symObjAddr: 0x3028, symBinAddr: 0x10000883C, symSize: 0x28 }
  - { offsetInCU: 0x1FF78, offset: 0x1FF78, size: 0x8, addend: 0x0, symName: __ZNSt8_Rb_treeIiSt4pairIKibESt10_Select1stIS2_ESt4lessIiESaIS2_EED1Ev, symObjAddr: 0x2FF4, symBinAddr: 0x100008808, symSize: 0x34 }
  - { offsetInCU: 0x1FFDE, offset: 0x1FFDE, size: 0x8, addend: 0x0, symName: __ZNSt8_Rb_treeIiSt4pairIKibESt10_Select1stIS2_ESt4lessIiESaIS2_EE13_Rb_tree_implIS6_Lb1EED1Ev, symObjAddr: 0x2FC8, symBinAddr: 0x1000087DC, symSize: 0x2C }
  - { offsetInCU: 0x1FFD3, offset: 0x1FFD3, size: 0x8, addend: 0x0, symName: __ZNK9__gnu_cxx16__aligned_membufISt4pairIKibEE7_M_addrEv, symObjAddr: 0x2FB4, symBinAddr: 0x1000087C8, symSize: 0x14 }
  - { offsetInCU: 0x1FFFC, offset: 0x1FFFC, size: 0x8, addend: 0x0, symName: __ZNSt15__new_allocatorISt13_Rb_tree_nodeISt4pairIKibEEE10deallocateEPS4_m, symObjAddr: 0x2F78, symBinAddr: 0x10000878C, symSize: 0x3C }
  - { offsetInCU: 0x200C8, offset: 0x200C8, size: 0x8, addend: 0x0, symName: __ZNSt15__new_allocatorISt13_Rb_tree_nodeISt4pairIKibEEE8allocateEmPKv, symObjAddr: 0x2EE8, symBinAddr: 0x1000086FC, symSize: 0x90 }
  - { offsetInCU: 0x20159, offset: 0x20159, size: 0x8, addend: 0x0, symName: __ZNK9__gnu_cxx16__aligned_membufISt4pairIKiSt3mapIibSt4lessIiESaIS1_IS2_bEEEEE7_M_addrEv, symObjAddr: 0x2ED4, symBinAddr: 0x1000086E8, symSize: 0x14 }
  - { offsetInCU: 0x2020C, offset: 0x2020C, size: 0x8, addend: 0x0, symName: __ZNSt5tupleIJOiEEC1EOS1_, symObjAddr: 0x2EAC, symBinAddr: 0x1000086C0, symSize: 0x28 }
  - { offsetInCU: 0x20226, offset: 0x20226, size: 0x8, addend: 0x0, symName: __ZNSt15__new_allocatorISt13_Rb_tree_nodeISt4pairIKiSt3mapIibSt4lessIiESaIS1_IS2_bEEEEEE8allocateEmPKv, symObjAddr: 0x2E08, symBinAddr: 0x10000861C, symSize: 0xA4 }
  - { offsetInCU: 0x2030A, offset: 0x2030A, size: 0x8, addend: 0x0, symName: __ZNSt15__new_allocatorISt13_Rb_tree_nodeISt4pairIKiSt3mapIibSt4lessIiESaIS1_IS2_bEEEEEE10deallocateEPSA_m, symObjAddr: 0x2DC4, symBinAddr: 0x1000085D8, symSize: 0x44 }
  - { offsetInCU: 0x203D7, offset: 0x203D7, size: 0x8, addend: 0x0, symName: __ZNSt4pairIKiSt3mapIibSt4lessIiESaIS_IS0_bEEEED1Ev, symObjAddr: 0x2DA0, symBinAddr: 0x1000085B4, symSize: 0x24 }
  - { offsetInCU: 0x2041A, offset: 0x2041A, size: 0x8, addend: 0x0, symName: __ZNSt3mapIibSt4lessIiESaISt4pairIKibEEED1Ev, symObjAddr: 0x2D80, symBinAddr: 0x100008594, symSize: 0x20 }
  - { offsetInCU: 0x20418, offset: 0x20418, size: 0x8, addend: 0x0, symName: __ZNK9__gnu_cxx16__aligned_membufISt4pairIKibEE6_M_ptrEv, symObjAddr: 0x2D64, symBinAddr: 0x100008578, symSize: 0x1C }
  - { offsetInCU: 0x2044A, offset: 0x2044A, size: 0x8, addend: 0x0, symName: __ZSt7forwardIRPSt13_Rb_tree_nodeISt4pairIKibEEEOT_RNSt16remove_referenceIS7_E4typeE, symObjAddr: 0x2D50, symBinAddr: 0x100008564, symSize: 0x14 }
  - { offsetInCU: 0x2055B, offset: 0x2055B, size: 0x8, addend: 0x0, symName: __ZNSt8_Rb_treeIiSt4pairIKibESt10_Select1stIS2_ESt4lessIiESaIS2_EE21_M_get_Node_allocatorEv, symObjAddr: 0x2D3C, symBinAddr: 0x100008550, symSize: 0x14 }
  - { offsetInCU: 0x20585, offset: 0x20585, size: 0x8, addend: 0x0, symName: __ZNK9__gnu_cxx16__aligned_membufISt4pairIKiSt3mapIibSt4lessIiESaIS1_IS2_bEEEEE6_M_ptrEv, symObjAddr: 0x2D20, symBinAddr: 0x100008534, symSize: 0x1C }
  - { offsetInCU: 0x205B7, offset: 0x205B7, size: 0x8, addend: 0x0, symName: __ZSt7forwardIRPSt13_Rb_tree_nodeISt4pairIKiSt3mapIibSt4lessIiESaIS1_IS2_bEEEEEEOT_RNSt16remove_referenceISD_E4typeE, symObjAddr: 0x2D0C, symBinAddr: 0x100008520, symSize: 0x14 }
  - { offsetInCU: 0x20669, offset: 0x20669, size: 0x8, addend: 0x0, symName: __ZNSt8_Rb_treeIiSt4pairIKibESt10_Select1stIS2_ESt4lessIiESaIS2_EE17_M_construct_nodeIJRKSt21piecewise_construct_tSt5tupleIJRS1_EESD_IJEEEEEvPSt13_Rb_tree_nodeIS2_EDpOT_, symObjAddr: 0x2B90, symBinAddr: 0x1000083A4, symSize: 0x17C }
  - { offsetInCU: 0x207C9, offset: 0x207C9, size: 0x8, addend: 0x0, symName: __ZNSt8_Rb_treeIiSt4pairIKiSt3mapIibSt4lessIiESaIS0_IS1_bEEEESt10_Select1stIS8_ES4_SaIS8_EE21_M_get_Node_allocatorEv, symObjAddr: 0x2B7C, symBinAddr: 0x100008390, symSize: 0x14 }
  - { offsetInCU: 0x207F3, offset: 0x207F3, size: 0x8, addend: 0x0, symName: __ZNKSt10_Select1stISt4pairIKibEEclERKS2_, symObjAddr: 0x2B64, symBinAddr: 0x100008378, symSize: 0x18 }
  - { offsetInCU: 0x2082E, offset: 0x2082E, size: 0x8, addend: 0x0, symName: __ZNKSt13_Rb_tree_nodeISt4pairIKibEE9_M_valptrEv, symObjAddr: 0x2B44, symBinAddr: 0x100008358, symSize: 0x20 }
  - { offsetInCU: 0x208F3, offset: 0x208F3, size: 0x8, addend: 0x0, symName: __ZNSt4pairIPSt18_Rb_tree_node_baseS1_EC1IRPSt13_Rb_tree_nodeIS_IKibEERS1_Lb1EEEOT_OT0_, symObjAddr: 0x2AFC, symBinAddr: 0x100008310, symSize: 0x48 }
  - { offsetInCU: 0x208EA, offset: 0x208EA, size: 0x8, addend: 0x0, symName: __ZNSt8_Rb_treeIiSt4pairIKibESt10_Select1stIS2_ESt4lessIiESaIS2_EE5beginEv, symObjAddr: 0x2AD4, symBinAddr: 0x1000082E8, symSize: 0x28 }
  - { offsetInCU: 0x20914, offset: 0x20914, size: 0x8, addend: 0x0, symName: __ZNSt8_Rb_treeIiSt4pairIKibESt10_Select1stIS2_ESt4lessIiESaIS2_EE11_M_put_nodeEPSt13_Rb_tree_nodeIS2_E, symObjAddr: 0x2A88, symBinAddr: 0x10000829C, symSize: 0x4C }
  - { offsetInCU: 0x20985, offset: 0x20985, size: 0x8, addend: 0x0, symName: __ZNSt8_Rb_treeIiSt4pairIKibESt10_Select1stIS2_ESt4lessIiESaIS2_EE15_M_destroy_nodeEPSt13_Rb_tree_nodeIS2_E, symObjAddr: 0x2A30, symBinAddr: 0x100008244, symSize: 0x58 }
  - { offsetInCU: 0x20A1A, offset: 0x20A1A, size: 0x8, addend: 0x0, symName: __ZNSt8_Rb_treeIiSt4pairIKibESt10_Select1stIS2_ESt4lessIiESaIS2_EE17_M_construct_nodeIJRKSt21piecewise_construct_tSt5tupleIJOiEESD_IJEEEEEvPSt13_Rb_tree_nodeIS2_EDpOT_, symObjAddr: 0x28B4, symBinAddr: 0x1000080C8, symSize: 0x17C }
  - { offsetInCU: 0x20B1B, offset: 0x20B1B, size: 0x8, addend: 0x0, symName: __ZNSt8_Rb_treeIiSt4pairIKibESt10_Select1stIS2_ESt4lessIiESaIS2_EE11_M_get_nodeEv, symObjAddr: 0x2878, symBinAddr: 0x10000808C, symSize: 0x3C }
  - { offsetInCU: 0x20B77, offset: 0x20B77, size: 0x8, addend: 0x0, symName: __ZN9__gnu_cxx16__aligned_membufISt4pairIKibEE7_M_addrEv, symObjAddr: 0x2864, symBinAddr: 0x100008078, symSize: 0x14 }
  - { offsetInCU: 0x20B9C, offset: 0x20B9C, size: 0x8, addend: 0x0, symName: __ZNSt8_Rb_treeIiSt4pairIKibESt10_Select1stIS2_ESt4lessIiESaIS2_EE7_S_leftEPSt18_Rb_tree_node_base, symObjAddr: 0x284C, symBinAddr: 0x100008060, symSize: 0x18 }
  - { offsetInCU: 0x20BCA, offset: 0x20BCA, size: 0x8, addend: 0x0, symName: __ZNKSt8_Rb_treeIiSt4pairIKibESt10_Select1stIS2_ESt4lessIiESaIS2_EE9_M_mbeginEv, symObjAddr: 0x2834, symBinAddr: 0x100008048, symSize: 0x18 }
  - { offsetInCU: 0x20BF4, offset: 0x20BF4, size: 0x8, addend: 0x0, symName: __ZNKSt10_Select1stISt4pairIKiSt3mapIibSt4lessIiESaIS0_IS1_bEEEEEclERKS8_, symObjAddr: 0x281C, symBinAddr: 0x100008030, symSize: 0x18 }
  - { offsetInCU: 0x20C2F, offset: 0x20C2F, size: 0x8, addend: 0x0, symName: __ZNKSt13_Rb_tree_nodeISt4pairIKiSt3mapIibSt4lessIiESaIS0_IS1_bEEEEE9_M_valptrEv, symObjAddr: 0x27FC, symBinAddr: 0x100008010, symSize: 0x20 }
  - { offsetInCU: 0x20C5B, offset: 0x20C5B, size: 0x8, addend: 0x0, symName: __ZSt7forwardIRPSt18_Rb_tree_node_baseEOT_RNSt16remove_referenceIS3_E4typeE, symObjAddr: 0x27E8, symBinAddr: 0x100007FFC, symSize: 0x14 }
  - { offsetInCU: 0x20D4B, offset: 0x20D4B, size: 0x8, addend: 0x0, symName: __ZNSt4pairIPSt18_Rb_tree_node_baseS1_EC1IRPSt13_Rb_tree_nodeIS_IKiSt3mapIibSt4lessIiESaIS_IS5_bEEEEERS1_Lb1EEEOT_OT0_, symObjAddr: 0x27A0, symBinAddr: 0x100007FB4, symSize: 0x48 }
  - { offsetInCU: 0x20D23, offset: 0x20D23, size: 0x8, addend: 0x0, symName: __ZNSt8_Rb_treeIiSt4pairIKiSt3mapIibSt4lessIiESaIS0_IS1_bEEEESt10_Select1stIS8_ES4_SaIS8_EE5beginEv, symObjAddr: 0x2778, symBinAddr: 0x100007F8C, symSize: 0x28 }
  - { offsetInCU: 0x20D4D, offset: 0x20D4D, size: 0x8, addend: 0x0, symName: __ZNSt8_Rb_treeIiSt4pairIKiSt3mapIibSt4lessIiESaIS0_IS1_bEEEESt10_Select1stIS8_ES4_SaIS8_EE17_M_construct_nodeIJRKSt21piecewise_construct_tSt5tupleIJOiEESH_IJEEEEEvPSt13_Rb_tree_nodeIS8_EDpOT_, symObjAddr: 0x25FC, symBinAddr: 0x100007E10, symSize: 0x17C }
  - { offsetInCU: 0x20E4E, offset: 0x20E4E, size: 0x8, addend: 0x0, symName: __ZNSt8_Rb_treeIiSt4pairIKiSt3mapIibSt4lessIiESaIS0_IS1_bEEEESt10_Select1stIS8_ES4_SaIS8_EE11_M_get_nodeEv, symObjAddr: 0x25C0, symBinAddr: 0x100007DD4, symSize: 0x3C }
  - { offsetInCU: 0x20EF8, offset: 0x20EF8, size: 0x8, addend: 0x0, symName: __ZNSt10_Head_baseILm0EOiLb0EEC2IiEEOT_, symObjAddr: 0x2590, symBinAddr: 0x100007DA4, symSize: 0x30 }
  - { offsetInCU: 0x20F12, offset: 0x20F12, size: 0x8, addend: 0x0, symName: __ZN9__gnu_cxx16__aligned_membufISt4pairIKiSt3mapIibSt4lessIiESaIS1_IS2_bEEEEE7_M_addrEv, symObjAddr: 0x257C, symBinAddr: 0x100007D90, symSize: 0x14 }
  - { offsetInCU: 0x20F3B, offset: 0x20F3B, size: 0x8, addend: 0x0, symName: __ZNSt8_Rb_treeIiSt4pairIKibESt10_Select1stIS2_ESt4lessIiESaIS2_EE14_M_create_nodeIJRKSt21piecewise_construct_tSt5tupleIJRS1_EESD_IJEEEEEPSt13_Rb_tree_nodeIS2_EDpOT_, symObjAddr: 0x250C, symBinAddr: 0x100007D20, symSize: 0x70 }
  - { offsetInCU: 0x20FF5, offset: 0x20FF5, size: 0x8, addend: 0x0, symName: __ZNSt10_Head_baseILm0ERKiLb0EEC2ES1_, symObjAddr: 0x24E8, symBinAddr: 0x100007CFC, symSize: 0x24 }
  - { offsetInCU: 0x21003, offset: 0x21003, size: 0x8, addend: 0x0, symName: __ZNSt8_Rb_treeIiSt4pairIKiSt3mapIibSt4lessIiESaIS0_IS1_bEEEESt10_Select1stIS8_ES4_SaIS8_EE11_M_put_nodeEPSt13_Rb_tree_nodeIS8_E, symObjAddr: 0x249C, symBinAddr: 0x100007CB0, symSize: 0x4C }
  - { offsetInCU: 0x21074, offset: 0x21074, size: 0x8, addend: 0x0, symName: __ZNSt8_Rb_treeIiSt4pairIKiSt3mapIibSt4lessIiESaIS0_IS1_bEEEESt10_Select1stIS8_ES4_SaIS8_EE15_M_destroy_nodeEPSt13_Rb_tree_nodeIS8_E, symObjAddr: 0x243C, symBinAddr: 0x100007C50, symSize: 0x60 }
  - { offsetInCU: 0x21109, offset: 0x21109, size: 0x8, addend: 0x0, symName: __ZNSt8_Rb_treeIiSt4pairIKibESt10_Select1stIS2_ESt4lessIiESaIS2_EE14_M_insert_nodeEPSt18_Rb_tree_node_baseSA_PSt13_Rb_tree_nodeIS2_E, symObjAddr: 0x236C, symBinAddr: 0x100007B80, symSize: 0xD0 }
  - { offsetInCU: 0x21173, offset: 0x21173, size: 0x8, addend: 0x0, symName: __ZNSt8_Rb_treeIiSt4pairIKibESt10_Select1stIS2_ESt4lessIiESaIS2_EE6_S_keyEPKSt13_Rb_tree_nodeIS2_E, symObjAddr: 0x2344, symBinAddr: 0x100007B58, symSize: 0x28 }
  - { offsetInCU: 0x211A1, offset: 0x211A1, size: 0x8, addend: 0x0, symName: __ZNSt17_Rb_tree_iteratorISt4pairIKibEEppEv, symObjAddr: 0x2314, symBinAddr: 0x100007B28, symSize: 0x30 }
  - { offsetInCU: 0x211C7, offset: 0x211C7, size: 0x8, addend: 0x0, symName: __ZNSt8_Rb_treeIiSt4pairIKibESt10_Select1stIS2_ESt4lessIiESaIS2_EE8_S_rightEPSt18_Rb_tree_node_base, symObjAddr: 0x22FC, symBinAddr: 0x100007B10, symSize: 0x18 }
  - { offsetInCU: 0x211F5, offset: 0x211F5, size: 0x8, addend: 0x0, symName: __ZNSt17_Rb_tree_iteratorISt4pairIKibEEmmEv, symObjAddr: 0x22CC, symBinAddr: 0x100007AE0, symSize: 0x30 }
  - { offsetInCU: 0x2121F, offset: 0x2121F, size: 0x8, addend: 0x0, symName: __ZNSt8_Rb_treeIiSt4pairIKibESt10_Select1stIS2_ESt4lessIiESaIS2_EE11_M_leftmostEv, symObjAddr: 0x22B4, symBinAddr: 0x100007AC8, symSize: 0x18 }
  - { offsetInCU: 0x21249, offset: 0x21249, size: 0x8, addend: 0x0, symName: __ZNSt8_Rb_treeIiSt4pairIKibESt10_Select1stIS2_ESt4lessIiESaIS2_EE24_M_get_insert_unique_posERS1_, symObjAddr: 0x215C, symBinAddr: 0x100007970, symSize: 0x158 }
  - { offsetInCU: 0x212C9, offset: 0x212C9, size: 0x8, addend: 0x0, symName: __ZNSt8_Rb_treeIiSt4pairIKibESt10_Select1stIS2_ESt4lessIiESaIS2_EE6_S_keyEPKSt18_Rb_tree_node_base, symObjAddr: 0x2140, symBinAddr: 0x100007954, symSize: 0x1C }
  - { offsetInCU: 0x212F7, offset: 0x212F7, size: 0x8, addend: 0x0, symName: __ZNSt8_Rb_treeIiSt4pairIKibESt10_Select1stIS2_ESt4lessIiESaIS2_EE12_M_rightmostEv, symObjAddr: 0x2128, symBinAddr: 0x10000793C, symSize: 0x18 }
  - { offsetInCU: 0x21321, offset: 0x21321, size: 0x8, addend: 0x0, symName: __ZNKSt8_Rb_treeIiSt4pairIKibESt10_Select1stIS2_ESt4lessIiESaIS2_EE4sizeEv, symObjAddr: 0x2110, symBinAddr: 0x100007924, symSize: 0x18 }
  - { offsetInCU: 0x2134B, offset: 0x2134B, size: 0x8, addend: 0x0, symName: __ZNKSt23_Rb_tree_const_iteratorISt4pairIKibEE13_M_const_castEv, symObjAddr: 0x20E8, symBinAddr: 0x1000078FC, symSize: 0x28 }
  - { offsetInCU: 0x21375, offset: 0x21375, size: 0x8, addend: 0x0, symName: __ZNSt8_Rb_treeIiSt4pairIKibESt10_Select1stIS2_ESt4lessIiESaIS2_EE12_M_drop_nodeEPSt13_Rb_tree_nodeIS2_E, symObjAddr: 0x20B4, symBinAddr: 0x1000078C8, symSize: 0x34 }
  - { offsetInCU: 0x213B0, offset: 0x213B0, size: 0x8, addend: 0x0, symName: __ZNSt8_Rb_treeIiSt4pairIKibESt10_Select1stIS2_ESt4lessIiESaIS2_EE14_M_create_nodeIJRKSt21piecewise_construct_tSt5tupleIJOiEESD_IJEEEEEPSt13_Rb_tree_nodeIS2_EDpOT_, symObjAddr: 0x2044, symBinAddr: 0x100007858, symSize: 0x70 }
  - { offsetInCU: 0x21422, offset: 0x21422, size: 0x8, addend: 0x0, symName: __ZN9__gnu_cxx16__aligned_membufISt4pairIKibEE6_M_ptrEv, symObjAddr: 0x2028, symBinAddr: 0x10000783C, symSize: 0x1C }
  - { offsetInCU: 0x2144C, offset: 0x2144C, size: 0x8, addend: 0x0, symName: __ZNSt8_Rb_treeIiSt4pairIKibESt10_Select1stIS2_ESt4lessIiESaIS2_EE14_M_lower_boundEPSt13_Rb_tree_nodeIS2_EPSt18_Rb_tree_node_baseRS1_, symObjAddr: 0x1F8C, symBinAddr: 0x1000077A0, symSize: 0x9C }
  - { offsetInCU: 0x214A9, offset: 0x214A9, size: 0x8, addend: 0x0, symName: __ZNSt8_Rb_treeIiSt4pairIKibESt10_Select1stIS2_ESt4lessIiESaIS2_EE6_M_endEv, symObjAddr: 0x1F74, symBinAddr: 0x100007788, symSize: 0x18 }
  - { offsetInCU: 0x214D3, offset: 0x214D3, size: 0x8, addend: 0x0, symName: __ZNSt8_Rb_treeIiSt4pairIKibESt10_Select1stIS2_ESt4lessIiESaIS2_EE8_M_beginEv, symObjAddr: 0x1F58, symBinAddr: 0x10000776C, symSize: 0x1C }
  - { offsetInCU: 0x214FD, offset: 0x214FD, size: 0x8, addend: 0x0, symName: __ZNSt8_Rb_treeIiSt4pairIKiSt3mapIibSt4lessIiESaIS0_IS1_bEEEESt10_Select1stIS8_ES4_SaIS8_EE14_M_insert_nodeEPSt18_Rb_tree_node_baseSE_PSt13_Rb_tree_nodeIS8_E, symObjAddr: 0x1E88, symBinAddr: 0x10000769C, symSize: 0xD0 }
  - { offsetInCU: 0x21567, offset: 0x21567, size: 0x8, addend: 0x0, symName: __ZNSt8_Rb_treeIiSt4pairIKiSt3mapIibSt4lessIiESaIS0_IS1_bEEEESt10_Select1stIS8_ES4_SaIS8_EE6_S_keyEPKSt13_Rb_tree_nodeIS8_E, symObjAddr: 0x1E60, symBinAddr: 0x100007674, symSize: 0x28 }
  - { offsetInCU: 0x21595, offset: 0x21595, size: 0x8, addend: 0x0, symName: __ZNSt17_Rb_tree_iteratorISt4pairIKiSt3mapIibSt4lessIiESaIS0_IS1_bEEEEEppEv, symObjAddr: 0x1E30, symBinAddr: 0x100007644, symSize: 0x30 }
  - { offsetInCU: 0x215BF, offset: 0x215BF, size: 0x8, addend: 0x0, symName: __ZNSt17_Rb_tree_iteratorISt4pairIKiSt3mapIibSt4lessIiESaIS0_IS1_bEEEEEmmEv, symObjAddr: 0x1E00, symBinAddr: 0x100007614, symSize: 0x30 }
  - { offsetInCU: 0x2166B, offset: 0x2166B, size: 0x8, addend: 0x0, symName: __ZNSt4pairIPSt18_Rb_tree_node_baseS1_EC1IRS1_S4_Lb1EEEOT_OT0_, symObjAddr: 0x1DB8, symBinAddr: 0x1000075CC, symSize: 0x48 }
  - { offsetInCU: 0x2167B, offset: 0x2167B, size: 0x8, addend: 0x0, symName: __ZNSt8_Rb_treeIiSt4pairIKiSt3mapIibSt4lessIiESaIS0_IS1_bEEEESt10_Select1stIS8_ES4_SaIS8_EE11_M_leftmostEv, symObjAddr: 0x1DA0, symBinAddr: 0x1000075B4, symSize: 0x18 }
  - { offsetInCU: 0x216A5, offset: 0x216A5, size: 0x8, addend: 0x0, symName: __ZNSt8_Rb_treeIiSt4pairIKiSt3mapIibSt4lessIiESaIS0_IS1_bEEEESt10_Select1stIS8_ES4_SaIS8_EE24_M_get_insert_unique_posERS1_, symObjAddr: 0x1C48, symBinAddr: 0x10000745C, symSize: 0x158 }
  - { offsetInCU: 0x217AB, offset: 0x217AB, size: 0x8, addend: 0x0, symName: __ZNSt4pairIPSt18_Rb_tree_node_baseS1_EC1IS1_S1_Lb1EEERKS1_S5_, symObjAddr: 0x1C0C, symBinAddr: 0x100007420, symSize: 0x3C }
  - { offsetInCU: 0x217B7, offset: 0x217B7, size: 0x8, addend: 0x0, symName: __ZNSt8_Rb_treeIiSt4pairIKiSt3mapIibSt4lessIiESaIS0_IS1_bEEEESt10_Select1stIS8_ES4_SaIS8_EE6_S_keyEPKSt18_Rb_tree_node_base, symObjAddr: 0x1BF0, symBinAddr: 0x100007404, symSize: 0x1C }
  - { offsetInCU: 0x217E5, offset: 0x217E5, size: 0x8, addend: 0x0, symName: __ZNSt8_Rb_treeIiSt4pairIKiSt3mapIibSt4lessIiESaIS0_IS1_bEEEESt10_Select1stIS8_ES4_SaIS8_EE12_M_rightmostEv, symObjAddr: 0x1BD8, symBinAddr: 0x1000073EC, symSize: 0x18 }
  - { offsetInCU: 0x2180F, offset: 0x2180F, size: 0x8, addend: 0x0, symName: __ZNKSt8_Rb_treeIiSt4pairIKiSt3mapIibSt4lessIiESaIS0_IS1_bEEEESt10_Select1stIS8_ES4_SaIS8_EE4sizeEv, symObjAddr: 0x1BC0, symBinAddr: 0x1000073D4, symSize: 0x18 }
  - { offsetInCU: 0x21839, offset: 0x21839, size: 0x8, addend: 0x0, symName: __ZNKSt23_Rb_tree_const_iteratorISt4pairIKiSt3mapIibSt4lessIiESaIS0_IS1_bEEEEE13_M_const_castEv, symObjAddr: 0x1B98, symBinAddr: 0x1000073AC, symSize: 0x28 }
  - { offsetInCU: 0x21863, offset: 0x21863, size: 0x8, addend: 0x0, symName: __ZNSt8_Rb_treeIiSt4pairIKiSt3mapIibSt4lessIiESaIS0_IS1_bEEEESt10_Select1stIS8_ES4_SaIS8_EE14_M_create_nodeIJRKSt21piecewise_construct_tSt5tupleIJOiEESH_IJEEEEEPSt13_Rb_tree_nodeIS8_EDpOT_, symObjAddr: 0x1B28, symBinAddr: 0x10000733C, symSize: 0x70 }
  - { offsetInCU: 0x21928, offset: 0x21928, size: 0x8, addend: 0x0, symName: __ZNSt11_Tuple_implILm0EJOiEEC2IiEEOT_, symObjAddr: 0x1AEC, symBinAddr: 0x100007300, symSize: 0x3C }
  - { offsetInCU: 0x2193E, offset: 0x2193E, size: 0x8, addend: 0x0, symName: __ZN9__gnu_cxx16__aligned_membufISt4pairIKiSt3mapIibSt4lessIiESaIS1_IS2_bEEEEE6_M_ptrEv, symObjAddr: 0x1AD0, symBinAddr: 0x1000072E4, symSize: 0x1C }
  - { offsetInCU: 0x21968, offset: 0x21968, size: 0x8, addend: 0x0, symName: __ZNSt8_Rb_treeIiSt4pairIKiSt3mapIibSt4lessIiESaIS0_IS1_bEEEESt10_Select1stIS8_ES4_SaIS8_EE14_M_lower_boundEPSt13_Rb_tree_nodeIS8_EPSt18_Rb_tree_node_baseRS1_, symObjAddr: 0x1A34, symBinAddr: 0x100007248, symSize: 0x9C }
  - { offsetInCU: 0x219C5, offset: 0x219C5, size: 0x8, addend: 0x0, symName: __ZNSt8_Rb_treeIiSt4pairIKiSt3mapIibSt4lessIiESaIS0_IS1_bEEEESt10_Select1stIS8_ES4_SaIS8_EE6_M_endEv, symObjAddr: 0x1A1C, symBinAddr: 0x100007230, symSize: 0x18 }
  - { offsetInCU: 0x21ACE, offset: 0x21ACE, size: 0x8, addend: 0x0, symName: __ZNSt8_Rb_treeIiSt4pairIKibESt10_Select1stIS2_ESt4lessIiESaIS2_EE10_Auto_nodeC1IJRKSt21piecewise_construct_tSt5tupleIJRS1_EESE_IJEEEEERS8_DpOT_, symObjAddr: 0x19A0, symBinAddr: 0x1000071B4, symSize: 0x7C }
  - { offsetInCU: 0x21AAA, offset: 0x21AAA, size: 0x8, addend: 0x0, symName: __ZSt7forwardISt5tupleIJRKiEEEOT_RNSt16remove_referenceIS4_E4typeE, symObjAddr: 0x198C, symBinAddr: 0x1000071A0, symSize: 0x14 }
  - { offsetInCU: 0x21B28, offset: 0x21B28, size: 0x8, addend: 0x0, symName: __ZNSt11_Tuple_implILm0EJRKiEEC2ES1_, symObjAddr: 0x1964, symBinAddr: 0x100007178, symSize: 0x28 }
  - { offsetInCU: 0x21B37, offset: 0x21B37, size: 0x8, addend: 0x0, symName: __ZNKSt8_Rb_treeIiSt4pairIKiSt3mapIibSt4lessIiESaIS0_IS1_bEEEESt10_Select1stIS8_ES4_SaIS8_EE9_M_mbeginEv, symObjAddr: 0x194C, symBinAddr: 0x100007160, symSize: 0x18 }
  - { offsetInCU: 0x21B61, offset: 0x21B61, size: 0x8, addend: 0x0, symName: __ZNSt8_Rb_treeIiSt4pairIKiSt3mapIibSt4lessIiESaIS0_IS1_bEEEESt10_Select1stIS8_ES4_SaIS8_EE12_M_drop_nodeEPSt13_Rb_tree_nodeIS8_E, symObjAddr: 0x1918, symBinAddr: 0x10000712C, symSize: 0x34 }
  - { offsetInCU: 0x21B98, offset: 0x21B98, size: 0x8, addend: 0x0, symName: __ZNSt8_Rb_treeIiSt4pairIKiSt3mapIibSt4lessIiESaIS0_IS1_bEEEESt10_Select1stIS8_ES4_SaIS8_EE7_S_leftEPSt18_Rb_tree_node_base, symObjAddr: 0x1900, symBinAddr: 0x100007114, symSize: 0x18 }
  - { offsetInCU: 0x21BC2, offset: 0x21BC2, size: 0x8, addend: 0x0, symName: __ZNSt8_Rb_treeIiSt4pairIKiSt3mapIibSt4lessIiESaIS0_IS1_bEEEESt10_Select1stIS8_ES4_SaIS8_EE8_S_rightEPSt18_Rb_tree_node_base, symObjAddr: 0x18E8, symBinAddr: 0x1000070FC, symSize: 0x18 }
  - { offsetInCU: 0x21C6B, offset: 0x21C6B, size: 0x8, addend: 0x0, symName: __ZNSt17_Rb_tree_iteratorISt4pairIKibEEC1EPSt18_Rb_tree_node_base, symObjAddr: 0x18C4, symBinAddr: 0x1000070D8, symSize: 0x24 }
  - { offsetInCU: 0x21C5D, offset: 0x21C5D, size: 0x8, addend: 0x0, symName: __ZNSt8_Rb_treeIiSt4pairIKibESt10_Select1stIS2_ESt4lessIiESaIS2_EE10_Auto_node9_M_insertES0_IPSt18_Rb_tree_node_baseSB_E, symObjAddr: 0x1878, symBinAddr: 0x10000708C, symSize: 0x4C }
  - { offsetInCU: 0x21CA9, offset: 0x21CA9, size: 0x8, addend: 0x0, symName: __ZNKSt8_Rb_treeIiSt4pairIKibESt10_Select1stIS2_ESt4lessIiESaIS2_EE10_Auto_node6_M_keyEv, symObjAddr: 0x1858, symBinAddr: 0x10000706C, symSize: 0x20 }
  - { offsetInCU: 0x21CD3, offset: 0x21CD3, size: 0x8, addend: 0x0, symName: __ZNSt8_Rb_treeIiSt4pairIKibESt10_Select1stIS2_ESt4lessIiESaIS2_EE29_M_get_insert_hint_unique_posESt23_Rb_tree_const_iteratorIS2_ERS1_, symObjAddr: 0x1534, symBinAddr: 0x100006D48, symSize: 0x324 }
  - { offsetInCU: 0x21DF0, offset: 0x21DF0, size: 0x8, addend: 0x0, symName: __ZNSt8_Rb_treeIiSt4pairIKibESt10_Select1stIS2_ESt4lessIiESaIS2_EE10_Auto_nodeD1Ev, symObjAddr: 0x14F0, symBinAddr: 0x100006D04, symSize: 0x44 }
  - { offsetInCU: 0x21EA5, offset: 0x21EA5, size: 0x8, addend: 0x0, symName: __ZNSt8_Rb_treeIiSt4pairIKibESt10_Select1stIS2_ESt4lessIiESaIS2_EE10_Auto_nodeC1IJRKSt21piecewise_construct_tSt5tupleIJOiEESE_IJEEEEERS8_DpOT_, symObjAddr: 0x1474, symBinAddr: 0x100006C88, symSize: 0x7C }
  - { offsetInCU: 0x21E81, offset: 0x21E81, size: 0x8, addend: 0x0, symName: __ZNSt13_Rb_tree_nodeISt4pairIKibEE9_M_valptrEv, symObjAddr: 0x1454, symBinAddr: 0x100006C68, symSize: 0x20 }
  - { offsetInCU: 0x21EAB, offset: 0x21EAB, size: 0x8, addend: 0x0, symName: __ZNKSt8_Rb_treeIiSt4pairIKibESt10_Select1stIS2_ESt4lessIiESaIS2_EE8key_compEv, symObjAddr: 0x143C, symBinAddr: 0x100006C50, symSize: 0x18 }
  - { offsetInCU: 0x21ED5, offset: 0x21ED5, size: 0x8, addend: 0x0, symName: __ZNSt8_Rb_treeIiSt4pairIKibESt10_Select1stIS2_ESt4lessIiESaIS2_EE3endEv, symObjAddr: 0x1414, symBinAddr: 0x100006C28, symSize: 0x28 }
  - { offsetInCU: 0x21EFF, offset: 0x21EFF, size: 0x8, addend: 0x0, symName: __ZNSt8_Rb_treeIiSt4pairIKibESt10_Select1stIS2_ESt4lessIiESaIS2_EE11lower_boundERS1_, symObjAddr: 0x13CC, symBinAddr: 0x100006BE0, symSize: 0x48 }
  - { offsetInCU: 0x21FBF, offset: 0x21FBF, size: 0x8, addend: 0x0, symName: __ZNSt17_Rb_tree_iteratorISt4pairIKiSt3mapIibSt4lessIiESaIS0_IS1_bEEEEEC1EPSt18_Rb_tree_node_base, symObjAddr: 0x13A8, symBinAddr: 0x100006BBC, symSize: 0x24 }
  - { offsetInCU: 0x21F91, offset: 0x21F91, size: 0x8, addend: 0x0, symName: __ZNSt8_Rb_treeIiSt4pairIKiSt3mapIibSt4lessIiESaIS0_IS1_bEEEESt10_Select1stIS8_ES4_SaIS8_EE10_Auto_node9_M_insertES0_IPSt18_Rb_tree_node_baseSF_E, symObjAddr: 0x135C, symBinAddr: 0x100006B70, symSize: 0x4C }
  - { offsetInCU: 0x21FDD, offset: 0x21FDD, size: 0x8, addend: 0x0, symName: __ZNKSt8_Rb_treeIiSt4pairIKiSt3mapIibSt4lessIiESaIS0_IS1_bEEEESt10_Select1stIS8_ES4_SaIS8_EE10_Auto_node6_M_keyEv, symObjAddr: 0x133C, symBinAddr: 0x100006B50, symSize: 0x20 }
  - { offsetInCU: 0x22007, offset: 0x22007, size: 0x8, addend: 0x0, symName: __ZNSt8_Rb_treeIiSt4pairIKiSt3mapIibSt4lessIiESaIS0_IS1_bEEEESt10_Select1stIS8_ES4_SaIS8_EE29_M_get_insert_hint_unique_posESt23_Rb_tree_const_iteratorIS8_ERS1_, symObjAddr: 0x1018, symBinAddr: 0x10000682C, symSize: 0x324 }
  - { offsetInCU: 0x2213D, offset: 0x2213D, size: 0x8, addend: 0x0, symName: __ZNSt8_Rb_treeIiSt4pairIKiSt3mapIibSt4lessIiESaIS0_IS1_bEEEESt10_Select1stIS8_ES4_SaIS8_EE10_Auto_nodeD1Ev, symObjAddr: 0xFD4, symBinAddr: 0x1000067E8, symSize: 0x44 }
  - { offsetInCU: 0x221F2, offset: 0x221F2, size: 0x8, addend: 0x0, symName: __ZNSt8_Rb_treeIiSt4pairIKiSt3mapIibSt4lessIiESaIS0_IS1_bEEEESt10_Select1stIS8_ES4_SaIS8_EE10_Auto_nodeC1IJRKSt21piecewise_construct_tSt5tupleIJOiEESI_IJEEEEERSC_DpOT_, symObjAddr: 0xF58, symBinAddr: 0x10000676C, symSize: 0x7C }
  - { offsetInCU: 0x221B7, offset: 0x221B7, size: 0x8, addend: 0x0, symName: __ZSt7forwardISt5tupleIJEEEOT_RNSt16remove_referenceIS2_E4typeE, symObjAddr: 0xF44, symBinAddr: 0x100006758, symSize: 0x14 }
  - { offsetInCU: 0x221EF, offset: 0x221EF, size: 0x8, addend: 0x0, symName: __ZSt7forwardISt5tupleIJOiEEEOT_RNSt16remove_referenceIS3_E4typeE, symObjAddr: 0xF30, symBinAddr: 0x100006744, symSize: 0x14 }
  - { offsetInCU: 0x22227, offset: 0x22227, size: 0x8, addend: 0x0, symName: __ZSt7forwardIRKSt21piecewise_construct_tEOT_RNSt16remove_referenceIS3_E4typeE, symObjAddr: 0xF1C, symBinAddr: 0x100006730, symSize: 0x14 }
  - { offsetInCU: 0x222BB, offset: 0x222BB, size: 0x8, addend: 0x0, symName: __ZNSt5tupleIJOiEEC1IJiELb1ELb1EEEDpOT_, symObjAddr: 0xEE0, symBinAddr: 0x1000066F4, symSize: 0x3C }
  - { offsetInCU: 0x222E3, offset: 0x222E3, size: 0x8, addend: 0x0, symName: __ZNSt13_Rb_tree_nodeISt4pairIKiSt3mapIibSt4lessIiESaIS0_IS1_bEEEEE9_M_valptrEv, symObjAddr: 0xEC0, symBinAddr: 0x1000066D4, symSize: 0x20 }
  - { offsetInCU: 0x2230D, offset: 0x2230D, size: 0x8, addend: 0x0, symName: __ZNKSt8_Rb_treeIiSt4pairIKiSt3mapIibSt4lessIiESaIS0_IS1_bEEEESt10_Select1stIS8_ES4_SaIS8_EE8key_compEv, symObjAddr: 0xEA8, symBinAddr: 0x1000066BC, symSize: 0x18 }
  - { offsetInCU: 0x22337, offset: 0x22337, size: 0x8, addend: 0x0, symName: __ZNSt8_Rb_treeIiSt4pairIKiSt3mapIibSt4lessIiESaIS0_IS1_bEEEESt10_Select1stIS8_ES4_SaIS8_EE3endEv, symObjAddr: 0xE80, symBinAddr: 0x100006694, symSize: 0x28 }
  - { offsetInCU: 0x22361, offset: 0x22361, size: 0x8, addend: 0x0, symName: __ZNSt8_Rb_treeIiSt4pairIKiSt3mapIibSt4lessIiESaIS0_IS1_bEEEESt10_Select1stIS8_ES4_SaIS8_EE11lower_boundERS1_, symObjAddr: 0xE38, symBinAddr: 0x10000664C, symSize: 0x48 }
  - { offsetInCU: 0x2239C, offset: 0x2239C, size: 0x8, addend: 0x0, symName: __ZNSt8_Rb_treeIiSt4pairIKibESt10_Select1stIS2_ESt4lessIiESaIS2_EE22_M_emplace_hint_uniqueIJRKSt21piecewise_construct_tSt5tupleIJRS1_EESD_IJEEEEESt17_Rb_tree_iteratorIS2_ESt23_Rb_tree_const_iteratorIS2_EDpOT_, symObjAddr: 0xD60, symBinAddr: 0x100006574, symSize: 0xD8 }
  - { offsetInCU: 0x22484, offset: 0x22484, size: 0x8, addend: 0x0, symName: __ZNSt5tupleIJRKiEEC1ILb1ELb1EEES1_, symObjAddr: 0xD38, symBinAddr: 0x10000654C, symSize: 0x28 }
  - { offsetInCU: 0x2249E, offset: 0x2249E, size: 0x8, addend: 0x0, symName: __ZNSt8_Rb_treeIiSt4pairIKiSt3mapIibSt4lessIiESaIS0_IS1_bEEEESt10_Select1stIS8_ES4_SaIS8_EE8_M_beginEv, symObjAddr: 0xD1C, symBinAddr: 0x100006530, symSize: 0x1C }
  - { offsetInCU: 0x224C8, offset: 0x224C8, size: 0x8, addend: 0x0, symName: __ZNSt8_Rb_treeIiSt4pairIKiSt3mapIibSt4lessIiESaIS0_IS1_bEEEESt10_Select1stIS8_ES4_SaIS8_EE8_M_eraseEPSt13_Rb_tree_nodeIS8_E, symObjAddr: 0xCB8, symBinAddr: 0x1000064CC, symSize: 0x64 }
  - { offsetInCU: 0x225A3, offset: 0x225A3, size: 0x8, addend: 0x0, symName: __ZNSt15__new_allocatorISt13_Rb_tree_nodeISt4pairIKiSt3mapIibSt4lessIiESaIS1_IS2_bEEEEEED2Ev, symObjAddr: 0xCA4, symBinAddr: 0x1000064B8, symSize: 0x14 }
  - { offsetInCU: 0x225B3, offset: 0x225B3, size: 0x8, addend: 0x0, symName: __ZNSt20_Rb_tree_key_compareISt4lessIiEEC2Ev, symObjAddr: 0xC90, symBinAddr: 0x1000064A4, symSize: 0x14 }
  - { offsetInCU: 0x225C7, offset: 0x225C7, size: 0x8, addend: 0x0, symName: __ZNSt8_Rb_treeIiSt4pairIKibESt10_Select1stIS2_ESt4lessIiESaIS2_EE22_M_emplace_hint_uniqueIJRKSt21piecewise_construct_tSt5tupleIJOiEESD_IJEEEEESt17_Rb_tree_iteratorIS2_ESt23_Rb_tree_const_iteratorIS2_EDpOT_, symObjAddr: 0xBB8, symBinAddr: 0x1000063CC, symSize: 0xD8 }
  - { offsetInCU: 0x226CE, offset: 0x226CE, size: 0x8, addend: 0x0, symName: __ZNSt23_Rb_tree_const_iteratorISt4pairIKibEEC1ERKSt17_Rb_tree_iteratorIS2_E, symObjAddr: 0xB90, symBinAddr: 0x1000063A4, symSize: 0x28 }
  - { offsetInCU: 0x226B5, offset: 0x226B5, size: 0x8, addend: 0x0, symName: __ZNKSt17_Rb_tree_iteratorISt4pairIKibEEdeEv, symObjAddr: 0xB70, symBinAddr: 0x100006384, symSize: 0x20 }
  - { offsetInCU: 0x226DF, offset: 0x226DF, size: 0x8, addend: 0x0, symName: __ZNKSt3mapIibSt4lessIiESaISt4pairIKibEEE8key_compEv, symObjAddr: 0xB44, symBinAddr: 0x100006358, symSize: 0x2C }
  - { offsetInCU: 0x2270B, offset: 0x2270B, size: 0x8, addend: 0x0, symName: __ZSteqRKSt17_Rb_tree_iteratorISt4pairIKibEES5_, symObjAddr: 0xB14, symBinAddr: 0x100006328, symSize: 0x30 }
  - { offsetInCU: 0x2274A, offset: 0x2274A, size: 0x8, addend: 0x0, symName: __ZNSt3mapIibSt4lessIiESaISt4pairIKibEEE3endEv, symObjAddr: 0xAF8, symBinAddr: 0x10000630C, symSize: 0x1C }
  - { offsetInCU: 0x22774, offset: 0x22774, size: 0x8, addend: 0x0, symName: __ZNSt3mapIibSt4lessIiESaISt4pairIKibEEE11lower_boundERS3_, symObjAddr: 0xAD4, symBinAddr: 0x1000062E8, symSize: 0x24 }
  - { offsetInCU: 0x227AF, offset: 0x227AF, size: 0x8, addend: 0x0, symName: __ZNSt8_Rb_treeIiSt4pairIKiSt3mapIibSt4lessIiESaIS0_IS1_bEEEESt10_Select1stIS8_ES4_SaIS8_EE22_M_emplace_hint_uniqueIJRKSt21piecewise_construct_tSt5tupleIJOiEESH_IJEEEEESt17_Rb_tree_iteratorIS8_ESt23_Rb_tree_const_iteratorIS8_EDpOT_, symObjAddr: 0x9FC, symBinAddr: 0x100006210, symSize: 0xD8 }
  - { offsetInCU: 0x228D6, offset: 0x228D6, size: 0x8, addend: 0x0, symName: __ZNSt23_Rb_tree_const_iteratorISt4pairIKiSt3mapIibSt4lessIiESaIS0_IS1_bEEEEEC1ERKSt17_Rb_tree_iteratorIS8_E, symObjAddr: 0x9D4, symBinAddr: 0x1000061E8, symSize: 0x28 }
  - { offsetInCU: 0x22899, offset: 0x22899, size: 0x8, addend: 0x0, symName: __ZSt16forward_as_tupleIJiEESt5tupleIJDpOT_EES3_, symObjAddr: 0x99C, symBinAddr: 0x1000061B0, symSize: 0x38 }
  - { offsetInCU: 0x228D4, offset: 0x228D4, size: 0x8, addend: 0x0, symName: __ZSt4moveIRiEONSt16remove_referenceIT_E4typeEOS2_, symObjAddr: 0x988, symBinAddr: 0x10000619C, symSize: 0x14 }
  - { offsetInCU: 0x2290A, offset: 0x2290A, size: 0x8, addend: 0x0, symName: __ZNKSt4lessIiEclERKiS2_, symObjAddr: 0x954, symBinAddr: 0x100006168, symSize: 0x34 }
  - { offsetInCU: 0x22956, offset: 0x22956, size: 0x8, addend: 0x0, symName: __ZNKSt17_Rb_tree_iteratorISt4pairIKiSt3mapIibSt4lessIiESaIS0_IS1_bEEEEEdeEv, symObjAddr: 0x934, symBinAddr: 0x100006148, symSize: 0x20 }
  - { offsetInCU: 0x22980, offset: 0x22980, size: 0x8, addend: 0x0, symName: __ZNKSt3mapIiS_IibSt4lessIiESaISt4pairIKibEEES1_SaIS2_IS3_S6_EEE8key_compEv, symObjAddr: 0x908, symBinAddr: 0x10000611C, symSize: 0x2C }
  - { offsetInCU: 0x229AC, offset: 0x229AC, size: 0x8, addend: 0x0, symName: __ZSteqRKSt17_Rb_tree_iteratorISt4pairIKiSt3mapIibSt4lessIiESaIS0_IS1_bEEEEESB_, symObjAddr: 0x8D8, symBinAddr: 0x1000060EC, symSize: 0x30 }
  - { offsetInCU: 0x229EB, offset: 0x229EB, size: 0x8, addend: 0x0, symName: __ZNSt3mapIiS_IibSt4lessIiESaISt4pairIKibEEES1_SaIS2_IS3_S6_EEE3endEv, symObjAddr: 0x8BC, symBinAddr: 0x1000060D0, symSize: 0x1C }
  - { offsetInCU: 0x22A15, offset: 0x22A15, size: 0x8, addend: 0x0, symName: __ZNSt3mapIiS_IibSt4lessIiESaISt4pairIKibEEES1_SaIS2_IS3_S6_EEE11lower_boundERS3_, symObjAddr: 0x898, symBinAddr: 0x1000060AC, symSize: 0x24 }
  - { offsetInCU: 0x22A50, offset: 0x22A50, size: 0x8, addend: 0x0, symName: __ZNSt3mapIibSt4lessIiESaISt4pairIKibEEEixERS3_, symObjAddr: 0x7AC, symBinAddr: 0x100005FC0, symSize: 0xEC }
  - { offsetInCU: 0x22B1B, offset: 0x22B1B, size: 0x8, addend: 0x0, symName: __ZNSt8_Rb_treeIiSt4pairIKiSt3mapIibSt4lessIiESaIS0_IS1_bEEEESt10_Select1stIS8_ES4_SaIS8_EED1Ev, symObjAddr: 0x778, symBinAddr: 0x100005F8C, symSize: 0x34 }
  - { offsetInCU: 0x22B93, offset: 0x22B93, size: 0x8, addend: 0x0, symName: __ZNSt8_Rb_treeIiSt4pairIKiSt3mapIibSt4lessIiESaIS0_IS1_bEEEESt10_Select1stIS8_ES4_SaIS8_EE13_Rb_tree_implIS4_Lb1EEC1Ev, symObjAddr: 0x734, symBinAddr: 0x100005F48, symSize: 0x44 }
  - { offsetInCU: 0x22B8D, offset: 0x22B8D, size: 0x8, addend: 0x0, symName: __ZNSt3mapIibSt4lessIiESaISt4pairIKibEEEixEOi, symObjAddr: 0x638, symBinAddr: 0x100005E4C, symSize: 0xFC }
  - { offsetInCU: 0x22BD9, offset: 0x22BD9, size: 0x8, addend: 0x0, symName: __ZNSt3mapIiS_IibSt4lessIiESaISt4pairIKibEEES1_SaIS2_IS3_S6_EEEixEOi, symObjAddr: 0x53C, symBinAddr: 0x100005D50, symSize: 0xFC }
  - { offsetInCU: 0x22C27, offset: 0x22C27, size: 0x8, addend: 0x0, symName: __ZSt7forwardIiEOT_RNSt16remove_referenceIS0_E4typeE, symObjAddr: 0x528, symBinAddr: 0x100005D3C, symSize: 0x14 }
  - { offsetInCU: 0x22C62, offset: 0x22C62, size: 0x8, addend: 0x0, symName: _main, symObjAddr: 0x4CC, symBinAddr: 0x100005CE0, symSize: 0x5C }
  - { offsetInCU: 0x22C99, offset: 0x22C99, size: 0x8, addend: 0x0, symName: __Z5solvev, symObjAddr: 0x400, symBinAddr: 0x100005C14, symSize: 0xCC }
  - { offsetInCU: 0x22D30, offset: 0x22D30, size: 0x8, addend: 0x0, symName: __ZNSt3mapIiS_IibSt4lessIiESaISt4pairIKibEEES1_SaIS2_IS3_S6_EEED1Ev, symObjAddr: 0x3E0, symBinAddr: 0x100005BF4, symSize: 0x20 }
  - { offsetInCU: 0x22D70, offset: 0x22D70, size: 0x8, addend: 0x0, symName: __ZNSt3mapIiS_IibSt4lessIiESaISt4pairIKibEEES1_SaIS2_IS3_S6_EEEC1Ev, symObjAddr: 0x3C0, symBinAddr: 0x100005BD4, symSize: 0x20 }
  - { offsetInCU: 0x22DCC, offset: 0x22DCC, size: 0x8, addend: 0x0, symName: __ZNSt8_Rb_treeIiSt4pairIKiSt3mapIibSt4lessIiESaIS0_IS1_bEEEESt10_Select1stIS8_ES4_SaIS8_EEC1Ev, symObjAddr: 0x3A0, symBinAddr: 0x100005BB4, symSize: 0x20 }
  - { offsetInCU: 0x22E32, offset: 0x22E32, size: 0x8, addend: 0x0, symName: __ZNSt8_Rb_treeIiSt4pairIKiSt3mapIibSt4lessIiESaIS0_IS1_bEEEESt10_Select1stIS8_ES4_SaIS8_EE13_Rb_tree_implIS4_Lb1EED1Ev, symObjAddr: 0x374, symBinAddr: 0x100005B88, symSize: 0x2C }
  - { offsetInCU: 0x22E55, offset: 0x22E55, size: 0x8, addend: 0x0, symName: __Z4getVxxxRSt3mapIiS_IibSt4lessIiESaISt4pairIKibEEES1_SaIS2_IS3_S6_EEE, symObjAddr: 0x94, symBinAddr: 0x1000058A8, symSize: 0x2E0 }
  - { offsetInCU: 0x22E81, offset: 0x22E81, size: 0x8, addend: 0x0, symName: __ZNSt15_Rb_tree_header8_M_resetEv, symObjAddr: 0x58, symBinAddr: 0x10000586C, symSize: 0x3C }
  - { offsetInCU: 0x22EDC, offset: 0x22EDC, size: 0x8, addend: 0x0, symName: __ZNSt15_Rb_tree_headerC2Ev, symObjAddr: 0x30, symBinAddr: 0x100005844, symSize: 0x28 }
  - { offsetInCU: 0x22EF4, offset: 0x22EF4, size: 0x8, addend: 0x0, symName: __ZdlPvS_, symObjAddr: 0x18, symBinAddr: 0x10000582C, symSize: 0x18 }
  - { offsetInCU: 0x22F29, offset: 0x22F29, size: 0x8, addend: 0x0, symName: __ZnwmPv, symObjAddr: 0x0, symBinAddr: 0x100005814, symSize: 0x18 }
...
