---
triple:          'arm64-apple-darwin'
binary-path:     '/Users/thomaskidane/Documents/Codeforce-Problems/Codeforce Problems/output/2003C'
relocations:
  - { offsetInCU: 0x1EC34, offset: 0x1EC34, size: 0x8, addend: 0x0, symName: __ZStL8__ioinit, symObjAddr: 0x94E28, symBinAddr: 0x100014790, symSize: 0x0 }
  - { offsetInCU: 0x1F5B2, offset: 0x1F5B2, size: 0x8, addend: 0x0, symName: __GLOBAL__sub_I_2003C.cpp, symObjAddr: 0x51C8, symBinAddr: 0x10000BD10, symSize: 0x14 }
  - { offsetInCU: 0x1F5DB, offset: 0x1F5DB, size: 0x8, addend: 0x0, symName: __Z41__static_initialization_and_destruction_0v, symObjAddr: 0x518C, symBinAddr: 0x10000BCD4, symSize: 0x3C }
  - { offsetInCU: 0x1F5CC, offset: 0x1F5CC, size: 0x8, addend: 0x0, symName: __ZNSt10_Head_baseILm0ERKcLb0EE7_M_headERS2_, symObjAddr: 0x5088, symBinAddr: 0x10000BCBC, symSize: 0x18 }
  - { offsetInCU: 0x1F5F5, offset: 0x1F5F5, size: 0x8, addend: 0x0, symName: __ZNSt20__copy_move_backwardILb1ELb0ESt26random_access_iterator_tagE13__copy_move_bIPSt4pairIicES5_EET0_T_S7_S6_, symObjAddr: 0x500C, symBinAddr: 0x10000BC40, symSize: 0x7C }
  - { offsetInCU: 0x1F664, offset: 0x1F664, size: 0x8, addend: 0x0, symName: __ZNSt11_Tuple_implILm0EJRKcEE7_M_headERS2_, symObjAddr: 0x4FF0, symBinAddr: 0x10000BC24, symSize: 0x1C }
  - { offsetInCU: 0x1F68E, offset: 0x1F68E, size: 0x8, addend: 0x0, symName: __ZSt23__copy_move_backward_a2ILb1EPSt4pairIicES2_ET1_T0_S4_S3_, symObjAddr: 0x4FC4, symBinAddr: 0x10000BBF8, symSize: 0x2C }
  - { offsetInCU: 0x1F6F6, offset: 0x1F6F6, size: 0x8, addend: 0x0, symName: __ZSt12__get_helperILm0ERKcJEERT0_RSt11_Tuple_implIXT_EJS2_DpT1_EE, symObjAddr: 0x4FA8, symBinAddr: 0x10000BBDC, symSize: 0x1C }
  - { offsetInCU: 0x1F738, offset: 0x1F738, size: 0x8, addend: 0x0, symName: __ZNSt11__copy_moveILb0ELb0ESt26random_access_iterator_tagE12__assign_oneIPSt4pairIicES5_EEvPT_PT0_, symObjAddr: 0x4F80, symBinAddr: 0x10000BBB4, symSize: 0x28 }
  - { offsetInCU: 0x1F785, offset: 0x1F785, size: 0x8, addend: 0x0, symName: __ZSt23__copy_move_backward_a1ILb1EPSt4pairIicES2_ET1_T0_S4_S3_, symObjAddr: 0x4F54, symBinAddr: 0x10000BB88, symSize: 0x2C }
  - { offsetInCU: 0x1F7ED, offset: 0x1F7ED, size: 0x8, addend: 0x0, symName: __ZSt3getILm0EJRKcEERNSt13tuple_elementIXT_ESt5tupleIJDpT0_EEE4typeERS6_, symObjAddr: 0x4F38, symBinAddr: 0x10000BB6C, symSize: 0x1C }
  - { offsetInCU: 0x1F82C, offset: 0x1F82C, size: 0x8, addend: 0x0, symName: __ZNSt20__copy_move_backwardILb0ELb1ESt26random_access_iterator_tagE13__copy_move_bIPSt4pairIicES5_EEPT0_PT_S9_S7_, symObjAddr: 0x4E8C, symBinAddr: 0x10000BAC0, symSize: 0xAC }
  - { offsetInCU: 0x1F89B, offset: 0x1F89B, size: 0x8, addend: 0x0, symName: __ZNSt11__copy_moveILb0ELb1ESt26random_access_iterator_tagE8__copy_mIPSt4pairIicES5_EEPT0_PT_S9_S7_, symObjAddr: 0x4DFC, symBinAddr: 0x10000BA30, symSize: 0x90 }
  - { offsetInCU: 0x1F90A, offset: 0x1F90A, size: 0x8, addend: 0x0, symName: __ZSt23__copy_move_backward_a1ILb1EPSt4pairIicES1_EN9__gnu_cxx11__enable_ifIXsrSt23__is_random_access_iterIT0_NSt15iterator_traitsIS6_E17iterator_categoryEE7__valueESt15_Deque_iteratorIT1_RSC_PSC_EE6__typeES6_S6_SF_, symObjAddr: 0x4CDC, symBinAddr: 0x10000B910, symSize: 0x120 }
  - { offsetInCU: 0x1F9EB, offset: 0x1F9EB, size: 0x8, addend: 0x0, symName: __ZNK9__gnu_cxx5__ops14_Iter_less_valclISt15_Deque_iteratorISt4pairIicERS5_PS5_ES5_EEbT_RT0_, symObjAddr: 0x4CB0, symBinAddr: 0x10000B8E4, symSize: 0x2C }
  - { offsetInCU: 0x1FB19, offset: 0x1FB19, size: 0x8, addend: 0x0, symName: __ZNSt4pairIKciEC1IJRS0_EJLm0EEJEJEEERSt5tupleIJDpT_EERS4_IJDpT1_EESt12_Index_tupleIJXspT0_EEESD_IJXspT2_EEE, symObjAddr: 0x4C68, symBinAddr: 0x10000B89C, symSize: 0x48 }
  - { offsetInCU: 0x1FB20, offset: 0x1FB20, size: 0x8, addend: 0x0, symName: __ZSt23__copy_move_backward_a2ILb0EPPSt4pairIicES3_ET1_T0_S5_S4_, symObjAddr: 0x4C3C, symBinAddr: 0x10000B870, symSize: 0x2C }
  - { offsetInCU: 0x1FB88, offset: 0x1FB88, size: 0x8, addend: 0x0, symName: __ZSt14__copy_move_a2ILb0EPPSt4pairIicES3_ET1_T0_S5_S4_, symObjAddr: 0x4C10, symBinAddr: 0x10000B844, symSize: 0x2C }
  - { offsetInCU: 0x1FBF0, offset: 0x1FBF0, size: 0x8, addend: 0x0, symName: __ZSt24__copy_move_backward_ditILb1ESt4pairIicERS1_PS1_St15_Deque_iteratorIS1_S2_S3_EET3_S4_IT0_T1_T2_ESA_S6_, symObjAddr: 0x4A78, symBinAddr: 0x10000B6AC, symSize: 0x198 }
  - { offsetInCU: 0x1FC9A, offset: 0x1FC9A, size: 0x8, addend: 0x0, symName: __ZSt11__push_heapISt15_Deque_iteratorISt4pairIicERS2_PS2_ElS2_N9__gnu_cxx5__ops14_Iter_less_valEEvT_T0_SA_T1_RT2_, symObjAddr: 0x4934, symBinAddr: 0x10000B568, symSize: 0x144 }
  - { offsetInCU: 0x1FD4A, offset: 0x1FD4A, size: 0x8, addend: 0x0, symName: __ZSt4moveIRN9__gnu_cxx5__ops15_Iter_less_iterEEONSt16remove_referenceIT_E4typeEOS5_, symObjAddr: 0x4920, symBinAddr: 0x10000B554, symSize: 0x14 }
  - { offsetInCU: 0x1FE19, offset: 0x1FE19, size: 0x8, addend: 0x0, symName: __ZNSt4pairIKciEC1IJRS0_EJEEESt21piecewise_construct_tSt5tupleIJDpT_EES5_IJDpT0_EE, symObjAddr: 0x48E4, symBinAddr: 0x10000B518, symSize: 0x3C }
  - { offsetInCU: 0x1FE66, offset: 0x1FE66, size: 0x8, addend: 0x0, symName: __ZNSt11_Tuple_implILm0EJRKcEEC2EOS2_, symObjAddr: 0x48BC, symBinAddr: 0x10000B4F0, symSize: 0x28 }
  - { offsetInCU: 0x1FE70, offset: 0x1FE70, size: 0x8, addend: 0x0, symName: __ZSt23__copy_move_backward_a1ILb0EPPSt4pairIicES3_ET1_T0_S5_S4_, symObjAddr: 0x4890, symBinAddr: 0x10000B4C4, symSize: 0x2C }
  - { offsetInCU: 0x1FED8, offset: 0x1FED8, size: 0x8, addend: 0x0, symName: __ZSt12__niter_wrapIPPSt4pairIicEET_RKS4_S4_, symObjAddr: 0x4878, symBinAddr: 0x10000B4AC, symSize: 0x18 }
  - { offsetInCU: 0x1FF14, offset: 0x1FF14, size: 0x8, addend: 0x0, symName: __ZSt14__copy_move_a1ILb0EPPSt4pairIicES3_ET1_T0_S5_S4_, symObjAddr: 0x484C, symBinAddr: 0x10000B480, symSize: 0x2C }
  - { offsetInCU: 0x1FF7C, offset: 0x1FF7C, size: 0x8, addend: 0x0, symName: __ZSt12__niter_baseIPPSt4pairIicEET_S4_, symObjAddr: 0x4838, symBinAddr: 0x10000B46C, symSize: 0x14 }
  - { offsetInCU: 0x1FFAF, offset: 0x1FFAF, size: 0x8, addend: 0x0, symName: __ZSt12__niter_wrapISt15_Deque_iteratorISt4pairIicERS2_PS2_EET_RKS6_S6_, symObjAddr: 0x4804, symBinAddr: 0x10000B438, symSize: 0x34 }
  - { offsetInCU: 0x1FFEC, offset: 0x1FFEC, size: 0x8, addend: 0x0, symName: __ZSt23__copy_move_backward_a1ILb1ESt4pairIicERS1_PS1_S1_ESt15_Deque_iteratorIT3_RS5_PS5_ES4_IT0_T1_T2_ESC_S8_, symObjAddr: 0x47A0, symBinAddr: 0x10000B3D4, symSize: 0x64 }
  - { offsetInCU: 0x2006C, offset: 0x2006C, size: 0x8, addend: 0x0, symName: __ZSt12__niter_baseISt15_Deque_iteratorISt4pairIicERS2_PS2_EET_S6_, symObjAddr: 0x4770, symBinAddr: 0x10000B3A4, symSize: 0x30 }
  - { offsetInCU: 0x200A0, offset: 0x200A0, size: 0x8, addend: 0x0, symName: __ZSt13__adjust_heapISt15_Deque_iteratorISt4pairIicERS2_PS2_ElS2_N9__gnu_cxx5__ops15_Iter_less_iterEEvT_T0_SA_T1_T2_, symObjAddr: 0x4568, symBinAddr: 0x10000B19C, symSize: 0x208 }
  - { offsetInCU: 0x2016D, offset: 0x2016D, size: 0x8, addend: 0x0, symName: __ZNK9__gnu_cxx16__aligned_membufISt4pairIKciEE7_M_addrEv, symObjAddr: 0x4554, symBinAddr: 0x10000B188, symSize: 0x14 }
  - { offsetInCU: 0x2022E, offset: 0x2022E, size: 0x8, addend: 0x0, symName: __ZNSt5tupleIJRKcEEC1EOS2_, symObjAddr: 0x452C, symBinAddr: 0x10000B160, symSize: 0x28 }
  - { offsetInCU: 0x20247, offset: 0x20247, size: 0x8, addend: 0x0, symName: __ZNSt15__new_allocatorISt13_Rb_tree_nodeISt4pairIKciEEE8allocateEmPKv, symObjAddr: 0x449C, symBinAddr: 0x10000B0D0, symSize: 0x90 }
  - { offsetInCU: 0x202CF, offset: 0x202CF, size: 0x8, addend: 0x0, symName: __ZSt22__copy_move_backward_aILb0EPPSt4pairIicES3_ET1_T0_S5_S4_, symObjAddr: 0x443C, symBinAddr: 0x10000B070, symSize: 0x60 }
  - { offsetInCU: 0x20337, offset: 0x20337, size: 0x8, addend: 0x0, symName: __ZSt13__copy_move_aILb0EPPSt4pairIicES3_ET1_T0_S5_S4_, symObjAddr: 0x43DC, symBinAddr: 0x10000B010, symSize: 0x60 }
  - { offsetInCU: 0x2039F, offset: 0x2039F, size: 0x8, addend: 0x0, symName: __ZSt12__miter_baseIPPSt4pairIicEET_S4_, symObjAddr: 0x43C8, symBinAddr: 0x10000AFFC, symSize: 0x14 }
  - { offsetInCU: 0x203E8, offset: 0x203E8, size: 0x8, addend: 0x0, symName: __ZSt4swapIcENSt9enable_ifIXsrSt6__and_IJSt6__not_ISt15__is_tuple_likeIT_EESt21is_move_constructibleIS4_ESt18is_move_assignableIS4_EEE5valueEvE4typeERS4_SE_, symObjAddr: 0x4374, symBinAddr: 0x10000AFA8, symSize: 0x54 }
  - { offsetInCU: 0x20441, offset: 0x20441, size: 0x8, addend: 0x0, symName: __ZSt4moveIRcEONSt16remove_referenceIT_E4typeEOS2_, symObjAddr: 0x4360, symBinAddr: 0x10000AF94, symSize: 0x14 }
  - { offsetInCU: 0x20473, offset: 0x20473, size: 0x8, addend: 0x0, symName: __ZSt4swapIiENSt9enable_ifIXsrSt6__and_IJSt6__not_ISt15__is_tuple_likeIT_EESt21is_move_constructibleIS4_ESt18is_move_assignableIS4_EEE5valueEvE4typeERS4_SE_, symObjAddr: 0x430C, symBinAddr: 0x10000AF40, symSize: 0x54 }
  - { offsetInCU: 0x204CC, offset: 0x204CC, size: 0x8, addend: 0x0, symName: __ZSt4moveIRiEONSt16remove_referenceIT_E4typeEOS2_, symObjAddr: 0x42F8, symBinAddr: 0x10000AF2C, symSize: 0x14 }
  - { offsetInCU: 0x2050D, offset: 0x2050D, size: 0x8, addend: 0x0, symName: __ZNK9__gnu_cxx5__ops14_Val_less_iterclISt4pairIicESt15_Deque_iteratorIS4_RS4_PS4_EEEbRT_T0_, symObjAddr: 0x42C8, symBinAddr: 0x10000AEFC, symSize: 0x30 }
  - { offsetInCU: 0x20566, offset: 0x20566, size: 0x8, addend: 0x0, symName: __ZSt22__copy_move_backward_aILb1ESt15_Deque_iteratorISt4pairIicERS2_PS2_ES5_ET1_T0_S7_S6_, symObjAddr: 0x421C, symBinAddr: 0x10000AE50, symSize: 0xAC }
  - { offsetInCU: 0x205D4, offset: 0x205D4, size: 0x8, addend: 0x0, symName: __ZSt12__miter_baseISt15_Deque_iteratorISt4pairIicERS2_PS2_EET_S6_, symObjAddr: 0x41EC, symBinAddr: 0x10000AE20, symSize: 0x30 }
  - { offsetInCU: 0x20608, offset: 0x20608, size: 0x8, addend: 0x0, symName: __ZStltIicEbRKSt4pairIT_T0_ES5_, symObjAddr: 0x4184, symBinAddr: 0x10000ADB8, symSize: 0x68 }
  - { offsetInCU: 0x20659, offset: 0x20659, size: 0x8, addend: 0x0, symName: __ZNSt15_Deque_iteratorISt4pairIicERS1_PS1_EmIEl, symObjAddr: 0x4158, symBinAddr: 0x10000AD8C, symSize: 0x2C }
  - { offsetInCU: 0x2068F, offset: 0x2068F, size: 0x8, addend: 0x0, symName: __ZSt10__pop_heapISt15_Deque_iteratorISt4pairIicERS2_PS2_EN9__gnu_cxx5__ops15_Iter_less_iterEEvT_S9_S9_RT0_, symObjAddr: 0x40B8, symBinAddr: 0x10000ACEC, symSize: 0xA0 }
  - { offsetInCU: 0x2072A, offset: 0x2072A, size: 0x8, addend: 0x0, symName: __ZSt11__make_heapISt15_Deque_iteratorISt4pairIicERS2_PS2_EN9__gnu_cxx5__ops15_Iter_less_iterEEvT_S9_RT0_, symObjAddr: 0x3FC8, symBinAddr: 0x10000ABFC, symSize: 0xF0 }
  - { offsetInCU: 0x207EB, offset: 0x207EB, size: 0x8, addend: 0x0, symName: __ZNK9__gnu_cxx16__aligned_membufISt4pairIKciEE6_M_ptrEv, symObjAddr: 0x3FAC, symBinAddr: 0x10000ABE0, symSize: 0x1C }
  - { offsetInCU: 0x2081D, offset: 0x2081D, size: 0x8, addend: 0x0, symName: __ZSt7forwardIRPSt13_Rb_tree_nodeISt4pairIKciEEEOT_RNSt16remove_referenceIS7_E4typeE, symObjAddr: 0x3F98, symBinAddr: 0x10000ABCC, symSize: 0x14 }
  - { offsetInCU: 0x208CF, offset: 0x208CF, size: 0x8, addend: 0x0, symName: __ZNSt15__new_allocatorISt13_Rb_tree_nodeISt4pairIKciEEE10deallocateEPS4_m, symObjAddr: 0x3F5C, symBinAddr: 0x10000AB90, symSize: 0x3C }
  - { offsetInCU: 0x20945, offset: 0x20945, size: 0x8, addend: 0x0, symName: __ZNSt15__new_allocatorISt4pairIicEE8allocateEmPKv, symObjAddr: 0x3EE0, symBinAddr: 0x10000AB14, symSize: 0x7C }
  - { offsetInCU: 0x209CD, offset: 0x209CD, size: 0x8, addend: 0x0, symName: __ZSt13copy_backwardIPPSt4pairIicES3_ET0_T_S5_S4_, symObjAddr: 0x3E98, symBinAddr: 0x10000AACC, symSize: 0x48 }
  - { offsetInCU: 0x20A2B, offset: 0x20A2B, size: 0x8, addend: 0x0, symName: __ZSt4copyIPPSt4pairIicES3_ET0_T_S5_S4_, symObjAddr: 0x3E50, symBinAddr: 0x10000AA84, symSize: 0x48 }
  - { offsetInCU: 0x20AA3, offset: 0x20AA3, size: 0x8, addend: 0x0, symName: __ZNSt4pairIicE4swapERS0_, symObjAddr: 0x3E0C, symBinAddr: 0x10000AA40, symSize: 0x44 }
  - { offsetInCU: 0x20ADA, offset: 0x20ADA, size: 0x8, addend: 0x0, symName: __ZSt25__unguarded_linear_insertISt15_Deque_iteratorISt4pairIicERS2_PS2_EN9__gnu_cxx5__ops14_Val_less_iterEEvT_T0_, symObjAddr: 0x3D38, symBinAddr: 0x10000A96C, symSize: 0xD4 }
  - { offsetInCU: 0x20B51, offset: 0x20B51, size: 0x8, addend: 0x0, symName: __ZNSt4pairIicEaSEOS0_, symObjAddr: 0x3CF0, symBinAddr: 0x10000A924, symSize: 0x48 }
  - { offsetInCU: 0x20B88, offset: 0x20B88, size: 0x8, addend: 0x0, symName: __ZSt13move_backwardISt15_Deque_iteratorISt4pairIicERS2_PS2_ES5_ET0_T_S7_S6_, symObjAddr: 0x3C6C, symBinAddr: 0x10000A8A0, symSize: 0x84 }
  - { offsetInCU: 0x20BFB, offset: 0x20BFB, size: 0x8, addend: 0x0, symName: __ZNK9__gnu_cxx5__ops15_Iter_less_iterclISt15_Deque_iteratorISt4pairIicERS5_PS5_ES8_EEbT_T0_, symObjAddr: 0x3C28, symBinAddr: 0x10000A85C, symSize: 0x44 }
  - { offsetInCU: 0x20C59, offset: 0x20C59, size: 0x8, addend: 0x0, symName: __ZNSt15_Deque_iteratorISt4pairIicERS1_PS1_EpLEl, symObjAddr: 0x3AFC, symBinAddr: 0x10000A730, symSize: 0x12C }
  - { offsetInCU: 0x20CC2, offset: 0x20CC2, size: 0x8, addend: 0x0, symName: __ZSt21__unguarded_partitionISt15_Deque_iteratorISt4pairIicERS2_PS2_EN9__gnu_cxx5__ops15_Iter_less_iterEET_S9_S9_S9_T0_, symObjAddr: 0x39E0, symBinAddr: 0x10000A614, symSize: 0x11C }
  - { offsetInCU: 0x20D38, offset: 0x20D38, size: 0x8, addend: 0x0, symName: __ZSt22__move_median_to_firstISt15_Deque_iteratorISt4pairIicERS2_PS2_EN9__gnu_cxx5__ops15_Iter_less_iterEEvT_S9_S9_S9_T0_, symObjAddr: 0x37C0, symBinAddr: 0x10000A3F4, symSize: 0x220 }
  - { offsetInCU: 0x20DC2, offset: 0x20DC2, size: 0x8, addend: 0x0, symName: __ZStmiRKSt15_Deque_iteratorISt4pairIicERS1_PS1_El, symObjAddr: 0x377C, symBinAddr: 0x10000A3B0, symSize: 0x44 }
  - { offsetInCU: 0x20E0E, offset: 0x20E0E, size: 0x8, addend: 0x0, symName: __ZSt11__sort_heapISt15_Deque_iteratorISt4pairIicERS2_PS2_EN9__gnu_cxx5__ops15_Iter_less_iterEEvT_S9_RT0_, symObjAddr: 0x36F0, symBinAddr: 0x10000A324, symSize: 0x8C }
  - { offsetInCU: 0x20E71, offset: 0x20E71, size: 0x8, addend: 0x0, symName: __ZSt13__heap_selectISt15_Deque_iteratorISt4pairIicERS2_PS2_EN9__gnu_cxx5__ops15_Iter_less_iterEEvT_S9_S9_T0_, symObjAddr: 0x3604, symBinAddr: 0x10000A238, symSize: 0xEC }
  - { offsetInCU: 0x20F26, offset: 0x20F26, size: 0x8, addend: 0x0, symName: __ZNSt15__new_allocatorISt4pairIicEE10deallocateEPS1_m, symObjAddr: 0x35D4, symBinAddr: 0x10000A208, symSize: 0x30 }
  - { offsetInCU: 0x20F70, offset: 0x20F70, size: 0x8, addend: 0x0, symName: __ZNSt15__new_allocatorIPSt4pairIicEE8allocateEmPKv, symObjAddr: 0x3558, symBinAddr: 0x10000A18C, symSize: 0x7C }
  - { offsetInCU: 0x20FFC, offset: 0x20FFC, size: 0x8, addend: 0x0, symName: __ZNKSt10_Select1stISt4pairIKciEEclERKS2_, symObjAddr: 0x3540, symBinAddr: 0x10000A174, symSize: 0x18 }
  - { offsetInCU: 0x21037, offset: 0x21037, size: 0x8, addend: 0x0, symName: __ZNKSt13_Rb_tree_nodeISt4pairIKciEE9_M_valptrEv, symObjAddr: 0x3520, symBinAddr: 0x10000A154, symSize: 0x20 }
  - { offsetInCU: 0x21063, offset: 0x21063, size: 0x8, addend: 0x0, symName: __ZSt7forwardIRPSt18_Rb_tree_node_baseEOT_RNSt16remove_referenceIS3_E4typeE, symObjAddr: 0x350C, symBinAddr: 0x10000A140, symSize: 0x14 }
  - { offsetInCU: 0x21134, offset: 0x21134, size: 0x8, addend: 0x0, symName: __ZNSt4pairIPSt18_Rb_tree_node_baseS1_EC1IRPSt13_Rb_tree_nodeIS_IKciEERS1_Lb1EEEOT_OT0_, symObjAddr: 0x34C4, symBinAddr: 0x10000A0F8, symSize: 0x48 }
  - { offsetInCU: 0x2112B, offset: 0x2112B, size: 0x8, addend: 0x0, symName: __ZNSt8_Rb_treeIcSt4pairIKciESt10_Select1stIS2_ESt4lessIcESaIS2_EE17_M_construct_nodeIJRKSt21piecewise_construct_tSt5tupleIJRS1_EESD_IJEEEEEvPSt13_Rb_tree_nodeIS2_EDpOT_, symObjAddr: 0x3348, symBinAddr: 0x100009F7C, symSize: 0x17C }
  - { offsetInCU: 0x2122C, offset: 0x2122C, size: 0x8, addend: 0x0, symName: __ZNSt8_Rb_treeIcSt4pairIKciESt10_Select1stIS2_ESt4lessIcESaIS2_EE11_M_get_nodeEv, symObjAddr: 0x330C, symBinAddr: 0x100009F40, symSize: 0x3C }
  - { offsetInCU: 0x212E2, offset: 0x212E2, size: 0x8, addend: 0x0, symName: __ZNSt8_Rb_treeIcSt4pairIKciESt10_Select1stIS2_ESt4lessIcESaIS2_EE21_M_get_Node_allocatorEv, symObjAddr: 0x32F8, symBinAddr: 0x100009F2C, symSize: 0x14 }
  - { offsetInCU: 0x21330, offset: 0x21330, size: 0x8, addend: 0x0, symName: __ZNSt5dequeISt4pairIicESaIS1_EE17_M_reallocate_mapEmb, symObjAddr: 0x30B4, symBinAddr: 0x100009CE8, symSize: 0x244 }
  - { offsetInCU: 0x213E1, offset: 0x213E1, size: 0x8, addend: 0x0, symName: __ZNSt5dequeISt4pairIicESaIS1_EE11_S_max_sizeERKS2_, symObjAddr: 0x3060, symBinAddr: 0x100009C94, symSize: 0x54 }
  - { offsetInCU: 0x21498, offset: 0x21498, size: 0x8, addend: 0x0, symName: __ZSt4swapIicENSt9enable_ifIXsrSt6__and_IJSt14__is_swappableIT_ES2_IT0_EEE5valueEvE4typeERSt4pairIS3_S5_ESC_, symObjAddr: 0x3038, symBinAddr: 0x100009C6C, symSize: 0x28 }
  - { offsetInCU: 0x214E5, offset: 0x214E5, size: 0x8, addend: 0x0, symName: __ZSt26__unguarded_insertion_sortISt15_Deque_iteratorISt4pairIicERS2_PS2_EN9__gnu_cxx5__ops15_Iter_less_iterEEvT_S9_T0_, symObjAddr: 0x2FBC, symBinAddr: 0x100009BF0, symSize: 0x7C }
  - { offsetInCU: 0x2156C, offset: 0x2156C, size: 0x8, addend: 0x0, symName: __ZSt16__insertion_sortISt15_Deque_iteratorISt4pairIicERS2_PS2_EN9__gnu_cxx5__ops15_Iter_less_iterEEvT_S9_T0_, symObjAddr: 0x2E6C, symBinAddr: 0x100009AA0, symSize: 0x150 }
  - { offsetInCU: 0x21619, offset: 0x21619, size: 0x8, addend: 0x0, symName: __ZStplRKSt15_Deque_iteratorISt4pairIicERS1_PS1_El, symObjAddr: 0x2E28, symBinAddr: 0x100009A5C, symSize: 0x44 }
  - { offsetInCU: 0x21665, offset: 0x21665, size: 0x8, addend: 0x0, symName: __ZSt27__unguarded_partition_pivotISt15_Deque_iteratorISt4pairIicERS2_PS2_EN9__gnu_cxx5__ops15_Iter_less_iterEET_S9_S9_T0_, symObjAddr: 0x2D2C, symBinAddr: 0x100009960, symSize: 0xFC }
  - { offsetInCU: 0x216DA, offset: 0x216DA, size: 0x8, addend: 0x0, symName: __ZSt14__partial_sortISt15_Deque_iteratorISt4pairIicERS2_PS2_EN9__gnu_cxx5__ops15_Iter_less_iterEEvT_S9_S9_T0_, symObjAddr: 0x2CA0, symBinAddr: 0x1000098D4, symSize: 0x8C }
  - { offsetInCU: 0x2179B, offset: 0x2179B, size: 0x8, addend: 0x0, symName: __ZN9__gnu_cxx16__aligned_membufISt4pairIKciEE7_M_addrEv, symObjAddr: 0x2C8C, symBinAddr: 0x1000098C0, symSize: 0x14 }
  - { offsetInCU: 0x217C4, offset: 0x217C4, size: 0x8, addend: 0x0, symName: __ZNSt15__new_allocatorIPSt4pairIicEE10deallocateEPS2_m, symObjAddr: 0x2C5C, symBinAddr: 0x100009890, symSize: 0x30 }
  - { offsetInCU: 0x21857, offset: 0x21857, size: 0x8, addend: 0x0, symName: __ZNSt15__new_allocatorIPSt4pairIicEED2Ev, symObjAddr: 0x2C48, symBinAddr: 0x10000987C, symSize: 0x14 }
  - { offsetInCU: 0x2187C, offset: 0x2187C, size: 0x8, addend: 0x0, symName: __ZNKSt11_Deque_baseISt4pairIicESaIS1_EE19_M_get_Tp_allocatorEv, symObjAddr: 0x2C34, symBinAddr: 0x100009868, symSize: 0x14 }
  - { offsetInCU: 0x21942, offset: 0x21942, size: 0x8, addend: 0x0, symName: __ZNSt15_Deque_iteratorISt4pairIicERS1_PS1_EC1Ev, symObjAddr: 0x2C00, symBinAddr: 0x100009834, symSize: 0x34 }
  - { offsetInCU: 0x21952, offset: 0x21952, size: 0x8, addend: 0x0, symName: __ZNSt8_Rb_treeIcSt4pairIKciESt10_Select1stIS2_ESt4lessIcESaIS2_EE14_M_insert_nodeEPSt18_Rb_tree_node_baseSA_PSt13_Rb_tree_nodeIS2_E, symObjAddr: 0x2B30, symBinAddr: 0x100009764, symSize: 0xD0 }
  - { offsetInCU: 0x219BC, offset: 0x219BC, size: 0x8, addend: 0x0, symName: __ZNSt8_Rb_treeIcSt4pairIKciESt10_Select1stIS2_ESt4lessIcESaIS2_EE6_S_keyEPKSt13_Rb_tree_nodeIS2_E, symObjAddr: 0x2B08, symBinAddr: 0x10000973C, symSize: 0x28 }
  - { offsetInCU: 0x219EA, offset: 0x219EA, size: 0x8, addend: 0x0, symName: __ZNSt17_Rb_tree_iteratorISt4pairIKciEEppEv, symObjAddr: 0x2AD8, symBinAddr: 0x10000970C, symSize: 0x30 }
  - { offsetInCU: 0x21A14, offset: 0x21A14, size: 0x8, addend: 0x0, symName: __ZNSt17_Rb_tree_iteratorISt4pairIKciEEmmEv, symObjAddr: 0x2AA8, symBinAddr: 0x1000096DC, symSize: 0x30 }
  - { offsetInCU: 0x21AC0, offset: 0x21AC0, size: 0x8, addend: 0x0, symName: __ZNSt4pairIPSt18_Rb_tree_node_baseS1_EC1IRS1_S4_Lb1EEEOT_OT0_, symObjAddr: 0x2A60, symBinAddr: 0x100009694, symSize: 0x48 }
  - { offsetInCU: 0x21AD0, offset: 0x21AD0, size: 0x8, addend: 0x0, symName: __ZNSt8_Rb_treeIcSt4pairIKciESt10_Select1stIS2_ESt4lessIcESaIS2_EE11_M_leftmostEv, symObjAddr: 0x2A48, symBinAddr: 0x10000967C, symSize: 0x18 }
  - { offsetInCU: 0x21AFA, offset: 0x21AFA, size: 0x8, addend: 0x0, symName: __ZNSt8_Rb_treeIcSt4pairIKciESt10_Select1stIS2_ESt4lessIcESaIS2_EE24_M_get_insert_unique_posERS1_, symObjAddr: 0x28F0, symBinAddr: 0x100009524, symSize: 0x158 }
  - { offsetInCU: 0x21C00, offset: 0x21C00, size: 0x8, addend: 0x0, symName: __ZNSt4pairIPSt18_Rb_tree_node_baseS1_EC1IS1_S1_Lb1EEERKS1_S5_, symObjAddr: 0x28B4, symBinAddr: 0x1000094E8, symSize: 0x3C }
  - { offsetInCU: 0x21C0C, offset: 0x21C0C, size: 0x8, addend: 0x0, symName: __ZNSt8_Rb_treeIcSt4pairIKciESt10_Select1stIS2_ESt4lessIcESaIS2_EE6_S_keyEPKSt18_Rb_tree_node_base, symObjAddr: 0x2898, symBinAddr: 0x1000094CC, symSize: 0x1C }
  - { offsetInCU: 0x21C3A, offset: 0x21C3A, size: 0x8, addend: 0x0, symName: __ZNSt8_Rb_treeIcSt4pairIKciESt10_Select1stIS2_ESt4lessIcESaIS2_EE12_M_rightmostEv, symObjAddr: 0x2880, symBinAddr: 0x1000094B4, symSize: 0x18 }
  - { offsetInCU: 0x21C64, offset: 0x21C64, size: 0x8, addend: 0x0, symName: __ZNKSt8_Rb_treeIcSt4pairIKciESt10_Select1stIS2_ESt4lessIcESaIS2_EE4sizeEv, symObjAddr: 0x2868, symBinAddr: 0x10000949C, symSize: 0x18 }
  - { offsetInCU: 0x21C8E, offset: 0x21C8E, size: 0x8, addend: 0x0, symName: __ZNKSt23_Rb_tree_const_iteratorISt4pairIKciEE13_M_const_castEv, symObjAddr: 0x2840, symBinAddr: 0x100009474, symSize: 0x28 }
  - { offsetInCU: 0x21CB8, offset: 0x21CB8, size: 0x8, addend: 0x0, symName: __ZNSt8_Rb_treeIcSt4pairIKciESt10_Select1stIS2_ESt4lessIcESaIS2_EE14_M_create_nodeIJRKSt21piecewise_construct_tSt5tupleIJRS1_EESD_IJEEEEEPSt13_Rb_tree_nodeIS2_EDpOT_, symObjAddr: 0x27D0, symBinAddr: 0x100009404, symSize: 0x70 }
  - { offsetInCU: 0x21D72, offset: 0x21D72, size: 0x8, addend: 0x0, symName: __ZNSt10_Head_baseILm0ERKcLb0EEC2ES1_, symObjAddr: 0x27AC, symBinAddr: 0x1000093E0, symSize: 0x24 }
  - { offsetInCU: 0x21D80, offset: 0x21D80, size: 0x8, addend: 0x0, symName: __ZNSt8_Rb_treeIcSt4pairIKciESt10_Select1stIS2_ESt4lessIcESaIS2_EE14_M_lower_boundEPSt13_Rb_tree_nodeIS2_EPSt18_Rb_tree_node_baseRS1_, symObjAddr: 0x2710, symBinAddr: 0x100009344, symSize: 0x9C }
  - { offsetInCU: 0x21DDD, offset: 0x21DDD, size: 0x8, addend: 0x0, symName: __ZNSt8_Rb_treeIcSt4pairIKciESt10_Select1stIS2_ESt4lessIcESaIS2_EE6_M_endEv, symObjAddr: 0x26F8, symBinAddr: 0x10000932C, symSize: 0x18 }
  - { offsetInCU: 0x21E07, offset: 0x21E07, size: 0x8, addend: 0x0, symName: __ZNSt8_Rb_treeIcSt4pairIKciESt10_Select1stIS2_ESt4lessIcESaIS2_EE11_M_put_nodeEPSt13_Rb_tree_nodeIS2_E, symObjAddr: 0x26AC, symBinAddr: 0x1000092E0, symSize: 0x4C }
  - { offsetInCU: 0x21E78, offset: 0x21E78, size: 0x8, addend: 0x0, symName: __ZNSt8_Rb_treeIcSt4pairIKciESt10_Select1stIS2_ESt4lessIcESaIS2_EE15_M_destroy_nodeEPSt13_Rb_tree_nodeIS2_E, symObjAddr: 0x2654, symBinAddr: 0x100009288, symSize: 0x58 }
  - { offsetInCU: 0x21F09, offset: 0x21F09, size: 0x8, addend: 0x0, symName: __ZSt13__countl_zeroImEiT_, symObjAddr: 0x2600, symBinAddr: 0x100009234, symSize: 0x54 }
  - { offsetInCU: 0x21FA2, offset: 0x21FA2, size: 0x8, addend: 0x0, symName: __ZNSt11_Deque_baseISt4pairIicESaIS1_EE16_M_allocate_nodeEv, symObjAddr: 0x25BC, symBinAddr: 0x1000091F0, symSize: 0x44 }
  - { offsetInCU: 0x21FF9, offset: 0x21FF9, size: 0x8, addend: 0x0, symName: __ZNSt5dequeISt4pairIicESaIS1_EE22_M_reserve_map_at_backEm, symObjAddr: 0x255C, symBinAddr: 0x100009190, symSize: 0x60 }
  - { offsetInCU: 0x22034, offset: 0x22034, size: 0x8, addend: 0x0, symName: __ZNKSt5dequeISt4pairIicESaIS1_EE8max_sizeEv, symObjAddr: 0x253C, symBinAddr: 0x100009170, symSize: 0x20 }
  - { offsetInCU: 0x220A2, offset: 0x220A2, size: 0x8, addend: 0x0, symName: __ZSt7forwardIRKSt4pairIicEEOT_RNSt16remove_referenceIS4_E4typeE, symObjAddr: 0x2528, symBinAddr: 0x10000915C, symSize: 0x14 }
  - { offsetInCU: 0x22101, offset: 0x22101, size: 0x8, addend: 0x0, symName: __ZNSt15_Deque_iteratorISt4pairIicERS1_PS1_E14_S_buffer_sizeEv, symObjAddr: 0x2510, symBinAddr: 0x100009144, symSize: 0x18 }
  - { offsetInCU: 0x2211C, offset: 0x2211C, size: 0x8, addend: 0x0, symName: __ZNSt15_Deque_iteratorISt4pairIicERS1_PS1_EppEv, symObjAddr: 0x24A4, symBinAddr: 0x1000090D8, symSize: 0x6C }
  - { offsetInCU: 0x22142, offset: 0x22142, size: 0x8, addend: 0x0, symName: __ZSt9iter_swapISt15_Deque_iteratorISt4pairIicERS2_PS2_ES5_EvT_T0_, symObjAddr: 0x2460, symBinAddr: 0x100009094, symSize: 0x44 }
  - { offsetInCU: 0x2218F, offset: 0x2218F, size: 0x8, addend: 0x0, symName: __ZStltRKSt15_Deque_iteratorISt4pairIicERS1_PS1_ES6_, symObjAddr: 0x23F8, symBinAddr: 0x10000902C, symSize: 0x68 }
  - { offsetInCU: 0x221CE, offset: 0x221CE, size: 0x8, addend: 0x0, symName: __ZNSt15_Deque_iteratorISt4pairIicERS1_PS1_EmmEv, symObjAddr: 0x238C, symBinAddr: 0x100008FC0, symSize: 0x6C }
  - { offsetInCU: 0x221F4, offset: 0x221F4, size: 0x8, addend: 0x0, symName: __ZSteqRKSt15_Deque_iteratorISt4pairIicERS1_PS1_ES6_, symObjAddr: 0x235C, symBinAddr: 0x100008F90, symSize: 0x30 }
  - { offsetInCU: 0x2222F, offset: 0x2222F, size: 0x8, addend: 0x0, symName: __ZSt22__final_insertion_sortISt15_Deque_iteratorISt4pairIicERS2_PS2_EN9__gnu_cxx5__ops15_Iter_less_iterEEvT_S9_T0_, symObjAddr: 0x227C, symBinAddr: 0x100008EB0, symSize: 0xE0 }
  - { offsetInCU: 0x22292, offset: 0x22292, size: 0x8, addend: 0x0, symName: __ZSt16__introsort_loopISt15_Deque_iteratorISt4pairIicERS2_PS2_ElN9__gnu_cxx5__ops15_Iter_less_iterEEvT_S9_T0_T1_, symObjAddr: 0x215C, symBinAddr: 0x100008D90, symSize: 0x120 }
  - { offsetInCU: 0x22335, offset: 0x22335, size: 0x8, addend: 0x0, symName: __ZSt4__lgIlET_S0_, symObjAddr: 0x2138, symBinAddr: 0x100008D6C, symSize: 0x24 }
  - { offsetInCU: 0x22368, offset: 0x22368, size: 0x8, addend: 0x0, symName: __ZStneRKSt15_Deque_iteratorISt4pairIicERS1_PS1_ES6_, symObjAddr: 0x210C, symBinAddr: 0x100008D40, symSize: 0x2C }
  - { offsetInCU: 0x223A7, offset: 0x223A7, size: 0x8, addend: 0x0, symName: __ZNSt5dequeISt4pairIicESaIS1_EE4backEv, symObjAddr: 0x20D8, symBinAddr: 0x100008D0C, symSize: 0x34 }
  - { offsetInCU: 0x223E2, offset: 0x223E2, size: 0x8, addend: 0x0, symName: __ZNSt5dequeISt4pairIicESaIS1_EE16_M_push_back_auxIJS1_EEEvDpOT_, symObjAddr: 0x1FB8, symBinAddr: 0x100008BEC, symSize: 0x120 }
  - { offsetInCU: 0x224D9, offset: 0x224D9, size: 0x8, addend: 0x0, symName: __ZSt7forwardISt4pairIicEEOT_RNSt16remove_referenceIS2_E4typeE, symObjAddr: 0x1FA4, symBinAddr: 0x100008BD8, symSize: 0x14 }
  - { offsetInCU: 0x2250F, offset: 0x2250F, size: 0x8, addend: 0x0, symName: __ZN9__gnu_cxx16__aligned_membufISt4pairIKciEE6_M_ptrEv, symObjAddr: 0x1F88, symBinAddr: 0x100008BBC, symSize: 0x1C }
  - { offsetInCU: 0x2258B, offset: 0x2258B, size: 0x8, addend: 0x0, symName: __ZNKSt11_Deque_baseISt4pairIicESaIS1_EE20_M_get_map_allocatorEv, symObjAddr: 0x1F40, symBinAddr: 0x100008B74, symSize: 0x48 }
  - { offsetInCU: 0x22605, offset: 0x22605, size: 0x8, addend: 0x0, symName: __ZNSt11_Deque_baseISt4pairIicESaIS1_EE18_M_deallocate_nodeEPS1_, symObjAddr: 0x1EE8, symBinAddr: 0x100008B1C, symSize: 0x58 }
  - { offsetInCU: 0x22676, offset: 0x22676, size: 0x8, addend: 0x0, symName: __ZNSt15_Deque_iteratorISt4pairIicERS1_PS1_E11_M_set_nodeEPS3_, symObjAddr: 0x1E8C, symBinAddr: 0x100008AC0, symSize: 0x5C }
  - { offsetInCU: 0x226B1, offset: 0x226B1, size: 0x8, addend: 0x0, symName: __ZNSt11_Deque_baseISt4pairIicESaIS1_EE15_M_create_nodesEPPS1_S5_, symObjAddr: 0x1E00, symBinAddr: 0x100008A34, symSize: 0x8C }
  - { offsetInCU: 0x2270E, offset: 0x2270E, size: 0x8, addend: 0x0, symName: __ZNSt11_Deque_baseISt4pairIicESaIS1_EE15_M_allocate_mapEm, symObjAddr: 0x1D80, symBinAddr: 0x1000089B4, symSize: 0x80 }
  - { offsetInCU: 0x2280E, offset: 0x2280E, size: 0x8, addend: 0x0, symName: __ZNSt15__new_allocatorISt4pairIicEED2Ev, symObjAddr: 0x1D6C, symBinAddr: 0x1000089A0, symSize: 0x14 }
  - { offsetInCU: 0x22863, offset: 0x22863, size: 0x8, addend: 0x0, symName: __ZNSt11_Deque_baseISt4pairIicESaIS1_EE16_Deque_impl_dataC2Ev, symObjAddr: 0x1D2C, symBinAddr: 0x100008960, symSize: 0x40 }
  - { offsetInCU: 0x228CB, offset: 0x228CB, size: 0x8, addend: 0x0, symName: __ZNSt17_Rb_tree_iteratorISt4pairIKciEEC1EPSt18_Rb_tree_node_base, symObjAddr: 0x1D08, symBinAddr: 0x10000893C, symSize: 0x24 }
  - { offsetInCU: 0x228BD, offset: 0x228BD, size: 0x8, addend: 0x0, symName: __ZNSt8_Rb_treeIcSt4pairIKciESt10_Select1stIS2_ESt4lessIcESaIS2_EE10_Auto_node9_M_insertES0_IPSt18_Rb_tree_node_baseSB_E, symObjAddr: 0x1CBC, symBinAddr: 0x1000088F0, symSize: 0x4C }
  - { offsetInCU: 0x22909, offset: 0x22909, size: 0x8, addend: 0x0, symName: __ZNKSt8_Rb_treeIcSt4pairIKciESt10_Select1stIS2_ESt4lessIcESaIS2_EE10_Auto_node6_M_keyEv, symObjAddr: 0x1C9C, symBinAddr: 0x1000088D0, symSize: 0x20 }
  - { offsetInCU: 0x22933, offset: 0x22933, size: 0x8, addend: 0x0, symName: __ZNSt8_Rb_treeIcSt4pairIKciESt10_Select1stIS2_ESt4lessIcESaIS2_EE29_M_get_insert_hint_unique_posESt23_Rb_tree_const_iteratorIS2_ERS1_, symObjAddr: 0x1978, symBinAddr: 0x1000085AC, symSize: 0x324 }
  - { offsetInCU: 0x22A50, offset: 0x22A50, size: 0x8, addend: 0x0, symName: __ZNSt8_Rb_treeIcSt4pairIKciESt10_Select1stIS2_ESt4lessIcESaIS2_EE10_Auto_nodeD1Ev, symObjAddr: 0x1934, symBinAddr: 0x100008568, symSize: 0x44 }
  - { offsetInCU: 0x22B07, offset: 0x22B07, size: 0x8, addend: 0x0, symName: __ZNSt8_Rb_treeIcSt4pairIKciESt10_Select1stIS2_ESt4lessIcESaIS2_EE10_Auto_nodeC1IJRKSt21piecewise_construct_tSt5tupleIJRS1_EESE_IJEEEEERS8_DpOT_, symObjAddr: 0x18B8, symBinAddr: 0x1000084EC, symSize: 0x7C }
  - { offsetInCU: 0x22AE3, offset: 0x22AE3, size: 0x8, addend: 0x0, symName: __ZSt7forwardISt5tupleIJEEEOT_RNSt16remove_referenceIS2_E4typeE, symObjAddr: 0x18A4, symBinAddr: 0x1000084D8, symSize: 0x14 }
  - { offsetInCU: 0x22B1B, offset: 0x22B1B, size: 0x8, addend: 0x0, symName: __ZSt7forwardISt5tupleIJRKcEEEOT_RNSt16remove_referenceIS4_E4typeE, symObjAddr: 0x1890, symBinAddr: 0x1000084C4, symSize: 0x14 }
  - { offsetInCU: 0x22B53, offset: 0x22B53, size: 0x8, addend: 0x0, symName: __ZSt7forwardIRKSt21piecewise_construct_tEOT_RNSt16remove_referenceIS3_E4typeE, symObjAddr: 0x187C, symBinAddr: 0x1000084B0, symSize: 0x14 }
  - { offsetInCU: 0x22BD1, offset: 0x22BD1, size: 0x8, addend: 0x0, symName: __ZNSt11_Tuple_implILm0EJRKcEEC2ES1_, symObjAddr: 0x1854, symBinAddr: 0x100008488, symSize: 0x28 }
  - { offsetInCU: 0x22BE0, offset: 0x22BE0, size: 0x8, addend: 0x0, symName: __ZNKSt8_Rb_treeIcSt4pairIKciESt10_Select1stIS2_ESt4lessIcESaIS2_EE8key_compEv, symObjAddr: 0x183C, symBinAddr: 0x100008470, symSize: 0x18 }
  - { offsetInCU: 0x22C0A, offset: 0x22C0A, size: 0x8, addend: 0x0, symName: __ZNSt8_Rb_treeIcSt4pairIKciESt10_Select1stIS2_ESt4lessIcESaIS2_EE11lower_boundERS1_, symObjAddr: 0x17F4, symBinAddr: 0x100008428, symSize: 0x48 }
  - { offsetInCU: 0x22C45, offset: 0x22C45, size: 0x8, addend: 0x0, symName: __ZNKSt8_Rb_treeIcSt4pairIKciESt10_Select1stIS2_ESt4lessIcESaIS2_EE9_M_mbeginEv, symObjAddr: 0x17DC, symBinAddr: 0x100008410, symSize: 0x18 }
  - { offsetInCU: 0x22C6F, offset: 0x22C6F, size: 0x8, addend: 0x0, symName: __ZNSt8_Rb_treeIcSt4pairIKciESt10_Select1stIS2_ESt4lessIcESaIS2_EE12_M_drop_nodeEPSt13_Rb_tree_nodeIS2_E, symObjAddr: 0x17A8, symBinAddr: 0x1000083DC, symSize: 0x34 }
  - { offsetInCU: 0x22CA6, offset: 0x22CA6, size: 0x8, addend: 0x0, symName: __ZNSt8_Rb_treeIcSt4pairIKciESt10_Select1stIS2_ESt4lessIcESaIS2_EE7_S_leftEPSt18_Rb_tree_node_base, symObjAddr: 0x1790, symBinAddr: 0x1000083C4, symSize: 0x18 }
  - { offsetInCU: 0x22CD0, offset: 0x22CD0, size: 0x8, addend: 0x0, symName: __ZNSt8_Rb_treeIcSt4pairIKciESt10_Select1stIS2_ESt4lessIcESaIS2_EE8_S_rightEPSt18_Rb_tree_node_base, symObjAddr: 0x1778, symBinAddr: 0x1000083AC, symSize: 0x18 }
  - { offsetInCU: 0x22D10, offset: 0x22D10, size: 0x8, addend: 0x0, symName: __ZSt11__bit_widthImEiT_, symObjAddr: 0x1748, symBinAddr: 0x10000837C, symSize: 0x30 }
  - { offsetInCU: 0x22D58, offset: 0x22D58, size: 0x8, addend: 0x0, symName: __ZNSt5dequeISt4pairIicESaIS1_EE16_M_push_back_auxIJRKS1_EEEvDpOT_, symObjAddr: 0x1628, symBinAddr: 0x10000825C, symSize: 0x120 }
  - { offsetInCU: 0x22E4D, offset: 0x22E4D, size: 0x8, addend: 0x0, symName: __ZNSt5dequeISt4pairIicESaIS1_EE16_M_pop_front_auxEv, symObjAddr: 0x1594, symBinAddr: 0x1000081C8, symSize: 0x94 }
  - { offsetInCU: 0x22EFE, offset: 0x22EFE, size: 0x8, addend: 0x0, symName: __ZNKSt15_Deque_iteratorISt4pairIicERS1_PS1_EdeEv, symObjAddr: 0x157C, symBinAddr: 0x1000081B0, symSize: 0x18 }
  - { offsetInCU: 0x22F24, offset: 0x22F24, size: 0x8, addend: 0x0, symName: __ZStmiRKSt15_Deque_iteratorISt4pairIicERS1_PS1_ES6_, symObjAddr: 0x14E8, symBinAddr: 0x10000811C, symSize: 0x94 }
  - { offsetInCU: 0x22F5F, offset: 0x22F5F, size: 0x8, addend: 0x0, symName: __ZSt9__reverseISt15_Deque_iteratorISt4pairIicERS2_PS2_EEvT_S6_St26random_access_iterator_tag, symObjAddr: 0x1454, symBinAddr: 0x100008088, symSize: 0x94 }
  - { offsetInCU: 0x22FC7, offset: 0x22FC7, size: 0x8, addend: 0x0, symName: __ZSt6__sortISt15_Deque_iteratorISt4pairIicERS2_PS2_EN9__gnu_cxx5__ops15_Iter_less_iterEEvT_S9_T0_, symObjAddr: 0x13B0, symBinAddr: 0x100007FE4, symSize: 0xA4 }
  - { offsetInCU: 0x23085, offset: 0x23085, size: 0x8, addend: 0x0, symName: __ZNSt15_Deque_iteratorISt4pairIicERS1_PS1_EC1ERKS4_, symObjAddr: 0x1358, symBinAddr: 0x100007F8C, symSize: 0x58 }
  - { offsetInCU: 0x23084, offset: 0x23084, size: 0x8, addend: 0x0, symName: __ZNSt5dequeISt4pairIicESaIS1_EE12emplace_backIJS1_EEERS1_DpOT_, symObjAddr: 0x127C, symBinAddr: 0x100007EB0, symSize: 0xDC }
  - { offsetInCU: 0x23136, offset: 0x23136, size: 0x8, addend: 0x0, symName: __ZSt4moveIRSt4pairIicEEONSt16remove_referenceIT_E4typeEOS4_, symObjAddr: 0x1268, symBinAddr: 0x100007E9C, symSize: 0x14 }
  - { offsetInCU: 0x231D4, offset: 0x231D4, size: 0x8, addend: 0x0, symName: __ZNSt4pairIicEC1IRiRKcLb1EEEOT_OT0_, symObjAddr: 0x1220, symBinAddr: 0x100007E54, symSize: 0x48 }
  - { offsetInCU: 0x23200, offset: 0x23200, size: 0x8, addend: 0x0, symName: __ZSt7forwardIRKcEOT_RNSt16remove_referenceIS2_E4typeE, symObjAddr: 0x120C, symBinAddr: 0x100007E40, symSize: 0x14 }
  - { offsetInCU: 0x23238, offset: 0x23238, size: 0x8, addend: 0x0, symName: __ZSt7forwardIRiEOT_RNSt16remove_referenceIS1_E4typeE, symObjAddr: 0x11F8, symBinAddr: 0x100007E2C, symSize: 0x14 }
  - { offsetInCU: 0x2326E, offset: 0x2326E, size: 0x8, addend: 0x0, symName: __ZNSt13_Rb_tree_nodeISt4pairIKciEE9_M_valptrEv, symObjAddr: 0x11D8, symBinAddr: 0x100007E0C, symSize: 0x20 }
  - { offsetInCU: 0x23298, offset: 0x23298, size: 0x8, addend: 0x0, symName: __ZNSt8_Rb_treeIcSt4pairIKciESt10_Select1stIS2_ESt4lessIcESaIS2_EE3endEv, symObjAddr: 0x11B0, symBinAddr: 0x100007DE4, symSize: 0x28 }
  - { offsetInCU: 0x232C2, offset: 0x232C2, size: 0x8, addend: 0x0, symName: __ZNSt8_Rb_treeIcSt4pairIKciESt10_Select1stIS2_ESt4lessIcESaIS2_EE5beginEv, symObjAddr: 0x1188, symBinAddr: 0x100007DBC, symSize: 0x28 }
  - { offsetInCU: 0x232EC, offset: 0x232EC, size: 0x8, addend: 0x0, symName: __ZNSt5dequeISt4pairIicESaIS1_EE15_M_destroy_dataESt15_Deque_iteratorIS1_RS1_PS1_ES7_RKS2_, symObjAddr: 0x1168, symBinAddr: 0x100007D9C, symSize: 0x20 }
  - { offsetInCU: 0x23347, offset: 0x23347, size: 0x8, addend: 0x0, symName: __ZNSt11_Deque_baseISt4pairIicESaIS1_EE19_M_get_Tp_allocatorEv, symObjAddr: 0x1154, symBinAddr: 0x100007D88, symSize: 0x14 }
  - { offsetInCU: 0x23371, offset: 0x23371, size: 0x8, addend: 0x0, symName: __ZNSt11_Deque_baseISt4pairIicESaIS1_EE17_M_deallocate_mapEPPS1_m, symObjAddr: 0x10F4, symBinAddr: 0x100007D28, symSize: 0x60 }
  - { offsetInCU: 0x23422, offset: 0x23422, size: 0x8, addend: 0x0, symName: __ZNSt11_Deque_baseISt4pairIicESaIS1_EE16_M_destroy_nodesEPPS1_S5_, symObjAddr: 0x1094, symBinAddr: 0x100007CC8, symSize: 0x60 }
  - { offsetInCU: 0x23492, offset: 0x23492, size: 0x8, addend: 0x0, symName: __ZNSt11_Deque_baseISt4pairIicESaIS1_EE17_M_initialize_mapEm, symObjAddr: 0xF08, symBinAddr: 0x100007B3C, symSize: 0x18C }
  - { offsetInCU: 0x2356E, offset: 0x2356E, size: 0x8, addend: 0x0, symName: __ZNSt11_Deque_baseISt4pairIicESaIS1_EE11_Deque_implC1Ev, symObjAddr: 0xED0, symBinAddr: 0x100007B04, symSize: 0x38 }
  - { offsetInCU: 0x235A7, offset: 0x235A7, size: 0x8, addend: 0x0, symName: __ZNSt8_Rb_treeIcSt4pairIKciESt10_Select1stIS2_ESt4lessIcESaIS2_EE22_M_emplace_hint_uniqueIJRKSt21piecewise_construct_tSt5tupleIJRS1_EESD_IJEEEEESt17_Rb_tree_iteratorIS2_ESt23_Rb_tree_const_iteratorIS2_EDpOT_, symObjAddr: 0xDF8, symBinAddr: 0x100007A2C, symSize: 0xD8 }
  - { offsetInCU: 0x236AE, offset: 0x236AE, size: 0x8, addend: 0x0, symName: __ZNSt23_Rb_tree_const_iteratorISt4pairIKciEEC1ERKSt17_Rb_tree_iteratorIS2_E, symObjAddr: 0xDD0, symBinAddr: 0x100007A04, symSize: 0x28 }
  - { offsetInCU: 0x236E6, offset: 0x236E6, size: 0x8, addend: 0x0, symName: __ZNSt5tupleIJRKcEEC1ILb1ELb1EEES1_, symObjAddr: 0xDA8, symBinAddr: 0x1000079DC, symSize: 0x28 }
  - { offsetInCU: 0x23700, offset: 0x23700, size: 0x8, addend: 0x0, symName: __ZNKSt4lessIcEclERKcS2_, symObjAddr: 0xD74, symBinAddr: 0x1000079A8, symSize: 0x34 }
  - { offsetInCU: 0x2374C, offset: 0x2374C, size: 0x8, addend: 0x0, symName: __ZNKSt17_Rb_tree_iteratorISt4pairIKciEEdeEv, symObjAddr: 0xD54, symBinAddr: 0x100007988, symSize: 0x20 }
  - { offsetInCU: 0x23776, offset: 0x23776, size: 0x8, addend: 0x0, symName: __ZNKSt3mapIciSt4lessIcESaISt4pairIKciEEE8key_compEv, symObjAddr: 0xD28, symBinAddr: 0x10000795C, symSize: 0x2C }
  - { offsetInCU: 0x237A2, offset: 0x237A2, size: 0x8, addend: 0x0, symName: __ZSteqRKSt17_Rb_tree_iteratorISt4pairIKciEES5_, symObjAddr: 0xCF8, symBinAddr: 0x10000792C, symSize: 0x30 }
  - { offsetInCU: 0x237E1, offset: 0x237E1, size: 0x8, addend: 0x0, symName: __ZNSt3mapIciSt4lessIcESaISt4pairIKciEEE11lower_boundERS3_, symObjAddr: 0xCD4, symBinAddr: 0x100007908, symSize: 0x24 }
  - { offsetInCU: 0x2381C, offset: 0x2381C, size: 0x8, addend: 0x0, symName: __ZNSt8_Rb_treeIcSt4pairIKciESt10_Select1stIS2_ESt4lessIcESaIS2_EE8_M_beginEv, symObjAddr: 0xCB8, symBinAddr: 0x1000078EC, symSize: 0x1C }
  - { offsetInCU: 0x23846, offset: 0x23846, size: 0x8, addend: 0x0, symName: __ZNSt8_Rb_treeIcSt4pairIKciESt10_Select1stIS2_ESt4lessIcESaIS2_EE8_M_eraseEPSt13_Rb_tree_nodeIS2_E, symObjAddr: 0xC54, symBinAddr: 0x100007888, symSize: 0x64 }
  - { offsetInCU: 0x23901, offset: 0x23901, size: 0x8, addend: 0x0, symName: __ZNSt15__new_allocatorISt13_Rb_tree_nodeISt4pairIKciEEED2Ev, symObjAddr: 0xC40, symBinAddr: 0x100007874, symSize: 0x14 }
  - { offsetInCU: 0x23931, offset: 0x23931, size: 0x8, addend: 0x0, symName: __ZNSt20_Rb_tree_key_compareISt4lessIcEEC2Ev, symObjAddr: 0xC2C, symBinAddr: 0x100007860, symSize: 0x14 }
  - { offsetInCU: 0x23945, offset: 0x23945, size: 0x8, addend: 0x0, symName: __ZNSt5dequeISt4pairIicESaIS1_EE9push_backERKS1_, symObjAddr: 0xB60, symBinAddr: 0x100007794, symSize: 0xCC }
  - { offsetInCU: 0x239EC, offset: 0x239EC, size: 0x8, addend: 0x0, symName: __ZNSt5dequeISt4pairIicESaIS1_EE9pop_frontEv, symObjAddr: 0xAD8, symBinAddr: 0x10000770C, symSize: 0x88 }
  - { offsetInCU: 0x23A70, offset: 0x23A70, size: 0x8, addend: 0x0, symName: __ZNSt5dequeISt4pairIicESaIS1_EE5frontEv, symObjAddr: 0xAAC, symBinAddr: 0x1000076E0, symSize: 0x2C }
  - { offsetInCU: 0x23A9A, offset: 0x23A9A, size: 0x8, addend: 0x0, symName: __ZNKSt5dequeISt4pairIicESaIS1_EE4sizeEv, symObjAddr: 0xA7C, symBinAddr: 0x1000076B0, symSize: 0x30 }
  - { offsetInCU: 0x23AC0, offset: 0x23AC0, size: 0x8, addend: 0x0, symName: __ZSt7reverseISt15_Deque_iteratorISt4pairIicERS2_PS2_EEvT_S6_, symObjAddr: 0xA24, symBinAddr: 0x100007658, symSize: 0x58 }
  - { offsetInCU: 0x23B2C, offset: 0x23B2C, size: 0x8, addend: 0x0, symName: __ZSt4sortISt15_Deque_iteratorISt4pairIicERS2_PS2_EEvT_S6_, symObjAddr: 0x9D4, symBinAddr: 0x100007608, symSize: 0x50 }
  - { offsetInCU: 0x23B78, offset: 0x23B78, size: 0x8, addend: 0x0, symName: __ZNSt5dequeISt4pairIicESaIS1_EE3endEv, symObjAddr: 0x99C, symBinAddr: 0x1000075D0, symSize: 0x38 }
  - { offsetInCU: 0x23BA2, offset: 0x23BA2, size: 0x8, addend: 0x0, symName: __ZNSt5dequeISt4pairIicESaIS1_EE5beginEv, symObjAddr: 0x964, symBinAddr: 0x100007598, symSize: 0x38 }
  - { offsetInCU: 0x23BCC, offset: 0x23BCC, size: 0x8, addend: 0x0, symName: __ZNSt5dequeISt4pairIicESaIS1_EE9push_backEOS1_, symObjAddr: 0x934, symBinAddr: 0x100007568, symSize: 0x30 }
  - { offsetInCU: 0x23C03, offset: 0x23C03, size: 0x8, addend: 0x0, symName: __ZSt9make_pairIRiRKcESt4pairINSt25__strip_reference_wrapperINSt5decayIT_E4typeEE6__typeENS4_INS5_IT0_E4typeEE6__typeEEOS6_OSB_, symObjAddr: 0x8E8, symBinAddr: 0x10000751C, symSize: 0x4C }
  - { offsetInCU: 0x23C54, offset: 0x23C54, size: 0x8, addend: 0x0, symName: __ZNKSt17_Rb_tree_iteratorISt4pairIKciEEptEv, symObjAddr: 0x8C8, symBinAddr: 0x1000074FC, symSize: 0x20 }
  - { offsetInCU: 0x23C7E, offset: 0x23C7E, size: 0x8, addend: 0x0, symName: __ZNSt17_Rb_tree_iteratorISt4pairIKciEEppEi, symObjAddr: 0x888, symBinAddr: 0x1000074BC, symSize: 0x40 }
  - { offsetInCU: 0x23CBE, offset: 0x23CBE, size: 0x8, addend: 0x0, symName: __ZStneRKSt17_Rb_tree_iteratorISt4pairIKciEES5_, symObjAddr: 0x858, symBinAddr: 0x10000748C, symSize: 0x30 }
  - { offsetInCU: 0x23CFD, offset: 0x23CFD, size: 0x8, addend: 0x0, symName: __ZNSt3mapIciSt4lessIcESaISt4pairIKciEEE3endEv, symObjAddr: 0x83C, symBinAddr: 0x100007470, symSize: 0x1C }
  - { offsetInCU: 0x23D27, offset: 0x23D27, size: 0x8, addend: 0x0, symName: __ZNSt3mapIciSt4lessIcESaISt4pairIKciEEE5beginEv, symObjAddr: 0x820, symBinAddr: 0x100007454, symSize: 0x1C }
  - { offsetInCU: 0x23D95, offset: 0x23D95, size: 0x8, addend: 0x0, symName: __ZNSt5dequeISt4pairIicESaIS1_EED1Ev, symObjAddr: 0x7B8, symBinAddr: 0x1000073EC, symSize: 0x68 }
  - { offsetInCU: 0x23DE7, offset: 0x23DE7, size: 0x8, addend: 0x0, symName: __ZNSt11_Deque_baseISt4pairIicESaIS1_EED2Ev, symObjAddr: 0x74C, symBinAddr: 0x100007380, symSize: 0x6C }
  - { offsetInCU: 0x23E27, offset: 0x23E27, size: 0x8, addend: 0x0, symName: __ZNSt11_Deque_baseISt4pairIicESaIS1_EEC2Ev, symObjAddr: 0x704, symBinAddr: 0x100007338, symSize: 0x48 }
  - { offsetInCU: 0x23E82, offset: 0x23E82, size: 0x8, addend: 0x0, symName: __ZNSt11_Deque_baseISt4pairIicESaIS1_EE11_Deque_implD1Ev, symObjAddr: 0x6D8, symBinAddr: 0x10000730C, symSize: 0x2C }
  - { offsetInCU: 0x23E98, offset: 0x23E98, size: 0x8, addend: 0x0, symName: __ZNSt3mapIciSt4lessIcESaISt4pairIKciEEEixERS3_, symObjAddr: 0x5EC, symBinAddr: 0x100007220, symSize: 0xEC }
  - { offsetInCU: 0x23F4A, offset: 0x23F4A, size: 0x8, addend: 0x0, symName: __ZNSt8_Rb_treeIcSt4pairIKciESt10_Select1stIS2_ESt4lessIcESaIS2_EED1Ev, symObjAddr: 0x5B8, symBinAddr: 0x1000071EC, symSize: 0x34 }
  - { offsetInCU: 0x23FC2, offset: 0x23FC2, size: 0x8, addend: 0x0, symName: __ZNSt8_Rb_treeIcSt4pairIKciESt10_Select1stIS2_ESt4lessIcESaIS2_EE13_Rb_tree_implIS6_Lb1EEC1Ev, symObjAddr: 0x574, symBinAddr: 0x1000071A8, symSize: 0x44 }
  - { offsetInCU: 0x23FD7, offset: 0x23FD7, size: 0x8, addend: 0x0, symName: __ZSt7forwardIiEOT_RNSt16remove_referenceIS0_E4typeE, symObjAddr: 0x560, symBinAddr: 0x100007194, symSize: 0x14 }
  - { offsetInCU: 0x24009, offset: 0x24009, size: 0x8, addend: 0x0, symName: __ZSt3maxImERKT_S2_S2_, symObjAddr: 0x528, symBinAddr: 0x10000715C, symSize: 0x38 }
  - { offsetInCU: 0x24056, offset: 0x24056, size: 0x8, addend: 0x0, symName: _main, symObjAddr: 0x4CC, symBinAddr: 0x100007100, symSize: 0x5C }
  - { offsetInCU: 0x2408D, offset: 0x2408D, size: 0x8, addend: 0x0, symName: __Z5solvev, symObjAddr: 0x22C, symBinAddr: 0x100006E60, symSize: 0x2A0 }
  - { offsetInCU: 0x241BE, offset: 0x241BE, size: 0x8, addend: 0x0, symName: __ZNSt5dequeISt4pairIicESaIS1_EEC1Ev, symObjAddr: 0x20C, symBinAddr: 0x100006E40, symSize: 0x20 }
  - { offsetInCU: 0x24210, offset: 0x24210, size: 0x8, addend: 0x0, symName: __ZNSt3mapIciSt4lessIcESaISt4pairIKciEEED1Ev, symObjAddr: 0x1EC, symBinAddr: 0x100006E20, symSize: 0x20 }
  - { offsetInCU: 0x24250, offset: 0x24250, size: 0x8, addend: 0x0, symName: __ZNSt3mapIciSt4lessIcESaISt4pairIKciEEEC1Ev, symObjAddr: 0x1CC, symBinAddr: 0x100006E00, symSize: 0x20 }
  - { offsetInCU: 0x242AA, offset: 0x242AA, size: 0x8, addend: 0x0, symName: __ZNSt8_Rb_treeIcSt4pairIKciESt10_Select1stIS2_ESt4lessIcESaIS2_EEC1Ev, symObjAddr: 0x1AC, symBinAddr: 0x100006DE0, symSize: 0x20 }
  - { offsetInCU: 0x24310, offset: 0x24310, size: 0x8, addend: 0x0, symName: __ZNSt8_Rb_treeIcSt4pairIKciESt10_Select1stIS2_ESt4lessIcESaIS2_EE13_Rb_tree_implIS6_Lb1EED1Ev, symObjAddr: 0x180, symBinAddr: 0x100006DB4, symSize: 0x2C }
  - { offsetInCU: 0x24302, offset: 0x24302, size: 0x8, addend: 0x0, symName: __ZSt7forwardIcEOT_RNSt16remove_referenceIS0_E4typeE, symObjAddr: 0x16C, symBinAddr: 0x100006DA0, symSize: 0x14 }
  - { offsetInCU: 0x24338, offset: 0x24338, size: 0x8, addend: 0x0, symName: __ZNSt15_Rb_tree_header8_M_resetEv, symObjAddr: 0x130, symBinAddr: 0x100006D64, symSize: 0x3C }
  - { offsetInCU: 0x24393, offset: 0x24393, size: 0x8, addend: 0x0, symName: __ZNSt15_Rb_tree_headerC2Ev, symObjAddr: 0x108, symBinAddr: 0x100006D3C, symSize: 0x28 }
  - { offsetInCU: 0x2439E, offset: 0x2439E, size: 0x8, addend: 0x0, symName: __ZSt16__deque_buf_sizem, symObjAddr: 0xD8, symBinAddr: 0x100006D0C, symSize: 0x30 }
  - { offsetInCU: 0x243C7, offset: 0x243C7, size: 0x8, addend: 0x0, symName: __ZSt3minIlERKT_S2_S2_, symObjAddr: 0xA0, symBinAddr: 0x100006CD4, symSize: 0x38 }
  - { offsetInCU: 0x24409, offset: 0x24409, size: 0x8, addend: 0x0, symName: __ZSt3minImERKT_S2_S2_, symObjAddr: 0x68, symBinAddr: 0x100006C9C, symSize: 0x38 }
  - { offsetInCU: 0x24458, offset: 0x24458, size: 0x8, addend: 0x0, symName: __ZdlPvS_, symObjAddr: 0x50, symBinAddr: 0x100006C84, symSize: 0x18 }
  - { offsetInCU: 0x2448D, offset: 0x2448D, size: 0x8, addend: 0x0, symName: __ZnwmPv, symObjAddr: 0x38, symBinAddr: 0x100006C6C, symSize: 0x18 }
  - { offsetInCU: 0x244BA, offset: 0x244BA, size: 0x8, addend: 0x0, symName: __ZN9__gnu_cxx5__ops15__val_comp_iterENS0_15_Iter_less_iterE, symObjAddr: 0x20, symBinAddr: 0x100006C54, symSize: 0x18 }
  - { offsetInCU: 0x24538, offset: 0x24538, size: 0x8, addend: 0x0, symName: __ZN9__gnu_cxx5__ops14_Iter_less_valC1ENS0_15_Iter_less_iterE, symObjAddr: 0x8, symBinAddr: 0x100006C3C, symSize: 0x18 }
  - { offsetInCU: 0x2452B, offset: 0x2452B, size: 0x8, addend: 0x0, symName: __ZN9__gnu_cxx5__ops16__iter_less_iterEv, symObjAddr: 0x0, symBinAddr: 0x100006C34, symSize: 0x8 }
...
